ARM GAS  /tmp/cco4PWEh.s 			page 1


   1              		.cpu cortex-m3
   2              		.eabi_attribute 20, 1
   3              		.eabi_attribute 21, 1
   4              		.eabi_attribute 23, 3
   5              		.eabi_attribute 24, 1
   6              		.eabi_attribute 25, 1
   7              		.eabi_attribute 26, 1
   8              		.eabi_attribute 30, 1
   9              		.eabi_attribute 34, 1
  10              		.eabi_attribute 18, 4
  11              		.file	"stm32f1xx_hal_dma.c"
  12              		.text
  13              	.Ltext0:
  14              		.cfi_sections	.debug_frame
  15              		.section	.text.DMA_SetConfig,"ax",%progbits
  16              		.align	1
  17              		.syntax unified
  18              		.thumb
  19              		.thumb_func
  20              		.fpu softvfp
  22              	DMA_SetConfig:
  23              	.LFB78:
  24              		.file 1 "Drivers/STM32F1xx_HAL_Driver/Src/stm32f1xx_hal_dma.c"
   1:Drivers/STM32F1xx_HAL_Driver/Src/stm32f1xx_hal_dma.c **** /**
   2:Drivers/STM32F1xx_HAL_Driver/Src/stm32f1xx_hal_dma.c ****   ******************************************************************************
   3:Drivers/STM32F1xx_HAL_Driver/Src/stm32f1xx_hal_dma.c ****   * @file    stm32f1xx_hal_dma.c
   4:Drivers/STM32F1xx_HAL_Driver/Src/stm32f1xx_hal_dma.c ****   * @author  MCD Application Team
   5:Drivers/STM32F1xx_HAL_Driver/Src/stm32f1xx_hal_dma.c ****   * @version V1.1.1
   6:Drivers/STM32F1xx_HAL_Driver/Src/stm32f1xx_hal_dma.c ****   * @date    12-May-2017
   7:Drivers/STM32F1xx_HAL_Driver/Src/stm32f1xx_hal_dma.c ****   * @brief   DMA HAL module driver.
   8:Drivers/STM32F1xx_HAL_Driver/Src/stm32f1xx_hal_dma.c ****   *         This file provides firmware functions to manage the following
   9:Drivers/STM32F1xx_HAL_Driver/Src/stm32f1xx_hal_dma.c ****   *         functionalities of the Direct Memory Access (DMA) peripheral:
  10:Drivers/STM32F1xx_HAL_Driver/Src/stm32f1xx_hal_dma.c ****   *           + Initialization and de-initialization functions
  11:Drivers/STM32F1xx_HAL_Driver/Src/stm32f1xx_hal_dma.c ****   *           + IO operation functions
  12:Drivers/STM32F1xx_HAL_Driver/Src/stm32f1xx_hal_dma.c ****   *           + Peripheral State and errors functions
  13:Drivers/STM32F1xx_HAL_Driver/Src/stm32f1xx_hal_dma.c ****   @verbatim
  14:Drivers/STM32F1xx_HAL_Driver/Src/stm32f1xx_hal_dma.c ****   ==============================================================================
  15:Drivers/STM32F1xx_HAL_Driver/Src/stm32f1xx_hal_dma.c ****                         ##### How to use this driver #####
  16:Drivers/STM32F1xx_HAL_Driver/Src/stm32f1xx_hal_dma.c ****   ==============================================================================
  17:Drivers/STM32F1xx_HAL_Driver/Src/stm32f1xx_hal_dma.c ****   [..]
  18:Drivers/STM32F1xx_HAL_Driver/Src/stm32f1xx_hal_dma.c ****    (#) Enable and configure the peripheral to be connected to the DMA Channel
  19:Drivers/STM32F1xx_HAL_Driver/Src/stm32f1xx_hal_dma.c ****        (except for internal SRAM / FLASH memories: no initialization is 
  20:Drivers/STM32F1xx_HAL_Driver/Src/stm32f1xx_hal_dma.c ****        necessary). Please refer to the Reference manual for connection between peripherals
  21:Drivers/STM32F1xx_HAL_Driver/Src/stm32f1xx_hal_dma.c ****        and DMA requests.
  22:Drivers/STM32F1xx_HAL_Driver/Src/stm32f1xx_hal_dma.c **** 
  23:Drivers/STM32F1xx_HAL_Driver/Src/stm32f1xx_hal_dma.c ****    (#) For a given Channel, program the required configuration through the following parameters:
  24:Drivers/STM32F1xx_HAL_Driver/Src/stm32f1xx_hal_dma.c ****        Channel request, Transfer Direction, Source and Destination data formats,
  25:Drivers/STM32F1xx_HAL_Driver/Src/stm32f1xx_hal_dma.c ****        Circular or Normal mode, Channel Priority level, Source and Destination Increment mode
  26:Drivers/STM32F1xx_HAL_Driver/Src/stm32f1xx_hal_dma.c ****        using HAL_DMA_Init() function.
  27:Drivers/STM32F1xx_HAL_Driver/Src/stm32f1xx_hal_dma.c **** 
  28:Drivers/STM32F1xx_HAL_Driver/Src/stm32f1xx_hal_dma.c ****    (#) Use HAL_DMA_GetState() function to return the DMA state and HAL_DMA_GetError() in case of er
  29:Drivers/STM32F1xx_HAL_Driver/Src/stm32f1xx_hal_dma.c ****        detection.
  30:Drivers/STM32F1xx_HAL_Driver/Src/stm32f1xx_hal_dma.c ****                     
  31:Drivers/STM32F1xx_HAL_Driver/Src/stm32f1xx_hal_dma.c ****    (#) Use HAL_DMA_Abort() function to abort the current transfer
  32:Drivers/STM32F1xx_HAL_Driver/Src/stm32f1xx_hal_dma.c ****                    
  33:Drivers/STM32F1xx_HAL_Driver/Src/stm32f1xx_hal_dma.c ****      -@-   In Memory-to-Memory transfer mode, Circular mode is not allowed.
  34:Drivers/STM32F1xx_HAL_Driver/Src/stm32f1xx_hal_dma.c ****      *** Polling mode IO operation ***
ARM GAS  /tmp/cco4PWEh.s 			page 2


  35:Drivers/STM32F1xx_HAL_Driver/Src/stm32f1xx_hal_dma.c ****      =================================
  36:Drivers/STM32F1xx_HAL_Driver/Src/stm32f1xx_hal_dma.c ****     [..]
  37:Drivers/STM32F1xx_HAL_Driver/Src/stm32f1xx_hal_dma.c ****           (+) Use HAL_DMA_Start() to start DMA transfer after the configuration of Source
  38:Drivers/STM32F1xx_HAL_Driver/Src/stm32f1xx_hal_dma.c ****               address and destination address and the Length of data to be transferred
  39:Drivers/STM32F1xx_HAL_Driver/Src/stm32f1xx_hal_dma.c ****           (+) Use HAL_DMA_PollForTransfer() to poll for the end of current transfer, in this
  40:Drivers/STM32F1xx_HAL_Driver/Src/stm32f1xx_hal_dma.c ****               case a fixed Timeout can be configured by User depending from his application.
  41:Drivers/STM32F1xx_HAL_Driver/Src/stm32f1xx_hal_dma.c **** 
  42:Drivers/STM32F1xx_HAL_Driver/Src/stm32f1xx_hal_dma.c ****      *** Interrupt mode IO operation ***
  43:Drivers/STM32F1xx_HAL_Driver/Src/stm32f1xx_hal_dma.c ****      ===================================
  44:Drivers/STM32F1xx_HAL_Driver/Src/stm32f1xx_hal_dma.c ****     [..]
  45:Drivers/STM32F1xx_HAL_Driver/Src/stm32f1xx_hal_dma.c ****           (+) Configure the DMA interrupt priority using HAL_NVIC_SetPriority()
  46:Drivers/STM32F1xx_HAL_Driver/Src/stm32f1xx_hal_dma.c ****           (+) Enable the DMA IRQ handler using HAL_NVIC_EnableIRQ()
  47:Drivers/STM32F1xx_HAL_Driver/Src/stm32f1xx_hal_dma.c ****           (+) Use HAL_DMA_Start_IT() to start DMA transfer after the configuration of
  48:Drivers/STM32F1xx_HAL_Driver/Src/stm32f1xx_hal_dma.c ****               Source address and destination address and the Length of data to be transferred.
  49:Drivers/STM32F1xx_HAL_Driver/Src/stm32f1xx_hal_dma.c ****               In this case the DMA interrupt is configured
  50:Drivers/STM32F1xx_HAL_Driver/Src/stm32f1xx_hal_dma.c ****           (+) Use HAL_DMA_IRQHandler() called under DMA_IRQHandler() Interrupt subroutine
  51:Drivers/STM32F1xx_HAL_Driver/Src/stm32f1xx_hal_dma.c ****           (+) At the end of data transfer HAL_DMA_IRQHandler() function is executed and user can
  52:Drivers/STM32F1xx_HAL_Driver/Src/stm32f1xx_hal_dma.c ****               add his own function by customization of function pointer XferCpltCallback and
  53:Drivers/STM32F1xx_HAL_Driver/Src/stm32f1xx_hal_dma.c ****               XferErrorCallback (i.e. a member of DMA handle structure).
  54:Drivers/STM32F1xx_HAL_Driver/Src/stm32f1xx_hal_dma.c **** 
  55:Drivers/STM32F1xx_HAL_Driver/Src/stm32f1xx_hal_dma.c ****      *** DMA HAL driver macros list ***
  56:Drivers/STM32F1xx_HAL_Driver/Src/stm32f1xx_hal_dma.c ****      ============================================= 
  57:Drivers/STM32F1xx_HAL_Driver/Src/stm32f1xx_hal_dma.c ****       [..]
  58:Drivers/STM32F1xx_HAL_Driver/Src/stm32f1xx_hal_dma.c ****        Below the list of most used macros in DMA HAL driver.
  59:Drivers/STM32F1xx_HAL_Driver/Src/stm32f1xx_hal_dma.c **** 
  60:Drivers/STM32F1xx_HAL_Driver/Src/stm32f1xx_hal_dma.c ****        (+) __HAL_DMA_ENABLE: Enable the specified DMA Channel.
  61:Drivers/STM32F1xx_HAL_Driver/Src/stm32f1xx_hal_dma.c ****        (+) __HAL_DMA_DISABLE: Disable the specified DMA Channel.
  62:Drivers/STM32F1xx_HAL_Driver/Src/stm32f1xx_hal_dma.c ****        (+) __HAL_DMA_GET_FLAG: Get the DMA Channel pending flags.
  63:Drivers/STM32F1xx_HAL_Driver/Src/stm32f1xx_hal_dma.c ****        (+) __HAL_DMA_CLEAR_FLAG: Clear the DMA Channel pending flags.
  64:Drivers/STM32F1xx_HAL_Driver/Src/stm32f1xx_hal_dma.c ****        (+) __HAL_DMA_ENABLE_IT: Enable the specified DMA Channel interrupts.
  65:Drivers/STM32F1xx_HAL_Driver/Src/stm32f1xx_hal_dma.c ****        (+) __HAL_DMA_DISABLE_IT: Disable the specified DMA Channel interrupts.
  66:Drivers/STM32F1xx_HAL_Driver/Src/stm32f1xx_hal_dma.c ****        (+) __HAL_DMA_GET_IT_SOURCE: Check whether the specified DMA Channel interrupt has occurred 
  67:Drivers/STM32F1xx_HAL_Driver/Src/stm32f1xx_hal_dma.c **** 
  68:Drivers/STM32F1xx_HAL_Driver/Src/stm32f1xx_hal_dma.c ****      [..] 
  69:Drivers/STM32F1xx_HAL_Driver/Src/stm32f1xx_hal_dma.c ****       (@) You can refer to the DMA HAL driver header file for more useful macros  
  70:Drivers/STM32F1xx_HAL_Driver/Src/stm32f1xx_hal_dma.c **** 
  71:Drivers/STM32F1xx_HAL_Driver/Src/stm32f1xx_hal_dma.c ****   @endverbatim
  72:Drivers/STM32F1xx_HAL_Driver/Src/stm32f1xx_hal_dma.c ****   ******************************************************************************
  73:Drivers/STM32F1xx_HAL_Driver/Src/stm32f1xx_hal_dma.c ****   * @attention
  74:Drivers/STM32F1xx_HAL_Driver/Src/stm32f1xx_hal_dma.c ****   *
  75:Drivers/STM32F1xx_HAL_Driver/Src/stm32f1xx_hal_dma.c ****   * <h2><center>&copy; COPYRIGHT(c) 2017 STMicroelectronics</center></h2>
  76:Drivers/STM32F1xx_HAL_Driver/Src/stm32f1xx_hal_dma.c ****   *
  77:Drivers/STM32F1xx_HAL_Driver/Src/stm32f1xx_hal_dma.c ****   * Redistribution and use in source and binary forms, with or without modification,
  78:Drivers/STM32F1xx_HAL_Driver/Src/stm32f1xx_hal_dma.c ****   * are permitted provided that the following conditions are met:
  79:Drivers/STM32F1xx_HAL_Driver/Src/stm32f1xx_hal_dma.c ****   *   1. Redistributions of source code must retain the above copyright notice,
  80:Drivers/STM32F1xx_HAL_Driver/Src/stm32f1xx_hal_dma.c ****   *      this list of conditions and the following disclaimer.
  81:Drivers/STM32F1xx_HAL_Driver/Src/stm32f1xx_hal_dma.c ****   *   2. Redistributions in binary form must reproduce the above copyright notice,
  82:Drivers/STM32F1xx_HAL_Driver/Src/stm32f1xx_hal_dma.c ****   *      this list of conditions and the following disclaimer in the documentation
  83:Drivers/STM32F1xx_HAL_Driver/Src/stm32f1xx_hal_dma.c ****   *      and/or other materials provided with the distribution.
  84:Drivers/STM32F1xx_HAL_Driver/Src/stm32f1xx_hal_dma.c ****   *   3. Neither the name of STMicroelectronics nor the names of its contributors
  85:Drivers/STM32F1xx_HAL_Driver/Src/stm32f1xx_hal_dma.c ****   *      may be used to endorse or promote products derived from this software
  86:Drivers/STM32F1xx_HAL_Driver/Src/stm32f1xx_hal_dma.c ****   *      without specific prior written permission.
  87:Drivers/STM32F1xx_HAL_Driver/Src/stm32f1xx_hal_dma.c ****   *
  88:Drivers/STM32F1xx_HAL_Driver/Src/stm32f1xx_hal_dma.c ****   * THIS SOFTWARE IS PROVIDED BY THE COPYRIGHT HOLDERS AND CONTRIBUTORS "AS IS"
  89:Drivers/STM32F1xx_HAL_Driver/Src/stm32f1xx_hal_dma.c ****   * AND ANY EXPRESS OR IMPLIED WARRANTIES, INCLUDING, BUT NOT LIMITED TO, THE
  90:Drivers/STM32F1xx_HAL_Driver/Src/stm32f1xx_hal_dma.c ****   * IMPLIED WARRANTIES OF MERCHANTABILITY AND FITNESS FOR A PARTICULAR PURPOSE ARE
  91:Drivers/STM32F1xx_HAL_Driver/Src/stm32f1xx_hal_dma.c ****   * DISCLAIMED. IN NO EVENT SHALL THE COPYRIGHT HOLDER OR CONTRIBUTORS BE LIABLE
ARM GAS  /tmp/cco4PWEh.s 			page 3


  92:Drivers/STM32F1xx_HAL_Driver/Src/stm32f1xx_hal_dma.c ****   * FOR ANY DIRECT, INDIRECT, INCIDENTAL, SPECIAL, EXEMPLARY, OR CONSEQUENTIAL
  93:Drivers/STM32F1xx_HAL_Driver/Src/stm32f1xx_hal_dma.c ****   * DAMAGES (INCLUDING, BUT NOT LIMITED TO, PROCUREMENT OF SUBSTITUTE GOODS OR
  94:Drivers/STM32F1xx_HAL_Driver/Src/stm32f1xx_hal_dma.c ****   * SERVICES; LOSS OF USE, DATA, OR PROFITS; OR BUSINESS INTERRUPTION) HOWEVER
  95:Drivers/STM32F1xx_HAL_Driver/Src/stm32f1xx_hal_dma.c ****   * CAUSED AND ON ANY THEORY OF LIABILITY, WHETHER IN CONTRACT, STRICT LIABILITY,
  96:Drivers/STM32F1xx_HAL_Driver/Src/stm32f1xx_hal_dma.c ****   * OR TORT (INCLUDING NEGLIGENCE OR OTHERWISE) ARISING IN ANY WAY OUT OF THE USE
  97:Drivers/STM32F1xx_HAL_Driver/Src/stm32f1xx_hal_dma.c ****   * OF THIS SOFTWARE, EVEN IF ADVISED OF THE POSSIBILITY OF SUCH DAMAGE.
  98:Drivers/STM32F1xx_HAL_Driver/Src/stm32f1xx_hal_dma.c ****   *
  99:Drivers/STM32F1xx_HAL_Driver/Src/stm32f1xx_hal_dma.c ****   ******************************************************************************
 100:Drivers/STM32F1xx_HAL_Driver/Src/stm32f1xx_hal_dma.c ****   */
 101:Drivers/STM32F1xx_HAL_Driver/Src/stm32f1xx_hal_dma.c **** 
 102:Drivers/STM32F1xx_HAL_Driver/Src/stm32f1xx_hal_dma.c **** /* Includes ------------------------------------------------------------------*/
 103:Drivers/STM32F1xx_HAL_Driver/Src/stm32f1xx_hal_dma.c **** #include "stm32f1xx_hal.h"
 104:Drivers/STM32F1xx_HAL_Driver/Src/stm32f1xx_hal_dma.c **** 
 105:Drivers/STM32F1xx_HAL_Driver/Src/stm32f1xx_hal_dma.c **** /** @addtogroup STM32F1xx_HAL_Driver
 106:Drivers/STM32F1xx_HAL_Driver/Src/stm32f1xx_hal_dma.c ****   * @{
 107:Drivers/STM32F1xx_HAL_Driver/Src/stm32f1xx_hal_dma.c ****   */
 108:Drivers/STM32F1xx_HAL_Driver/Src/stm32f1xx_hal_dma.c **** 
 109:Drivers/STM32F1xx_HAL_Driver/Src/stm32f1xx_hal_dma.c **** /** @defgroup DMA DMA
 110:Drivers/STM32F1xx_HAL_Driver/Src/stm32f1xx_hal_dma.c ****   * @brief DMA HAL module driver
 111:Drivers/STM32F1xx_HAL_Driver/Src/stm32f1xx_hal_dma.c ****   * @{
 112:Drivers/STM32F1xx_HAL_Driver/Src/stm32f1xx_hal_dma.c ****   */
 113:Drivers/STM32F1xx_HAL_Driver/Src/stm32f1xx_hal_dma.c **** 
 114:Drivers/STM32F1xx_HAL_Driver/Src/stm32f1xx_hal_dma.c **** #ifdef HAL_DMA_MODULE_ENABLED
 115:Drivers/STM32F1xx_HAL_Driver/Src/stm32f1xx_hal_dma.c **** 
 116:Drivers/STM32F1xx_HAL_Driver/Src/stm32f1xx_hal_dma.c **** /* Private typedef -----------------------------------------------------------*/
 117:Drivers/STM32F1xx_HAL_Driver/Src/stm32f1xx_hal_dma.c **** /* Private define ------------------------------------------------------------*/
 118:Drivers/STM32F1xx_HAL_Driver/Src/stm32f1xx_hal_dma.c **** /* Private macro -------------------------------------------------------------*/
 119:Drivers/STM32F1xx_HAL_Driver/Src/stm32f1xx_hal_dma.c **** /* Private variables ---------------------------------------------------------*/
 120:Drivers/STM32F1xx_HAL_Driver/Src/stm32f1xx_hal_dma.c **** /* Private function prototypes -----------------------------------------------*/
 121:Drivers/STM32F1xx_HAL_Driver/Src/stm32f1xx_hal_dma.c **** /** @defgroup DMA_Private_Functions DMA Private Functions
 122:Drivers/STM32F1xx_HAL_Driver/Src/stm32f1xx_hal_dma.c ****   * @{
 123:Drivers/STM32F1xx_HAL_Driver/Src/stm32f1xx_hal_dma.c ****   */
 124:Drivers/STM32F1xx_HAL_Driver/Src/stm32f1xx_hal_dma.c **** static void DMA_SetConfig(DMA_HandleTypeDef *hdma, uint32_t SrcAddress, uint32_t DstAddress, uint32
 125:Drivers/STM32F1xx_HAL_Driver/Src/stm32f1xx_hal_dma.c **** /**
 126:Drivers/STM32F1xx_HAL_Driver/Src/stm32f1xx_hal_dma.c ****   * @}
 127:Drivers/STM32F1xx_HAL_Driver/Src/stm32f1xx_hal_dma.c ****   */
 128:Drivers/STM32F1xx_HAL_Driver/Src/stm32f1xx_hal_dma.c **** 
 129:Drivers/STM32F1xx_HAL_Driver/Src/stm32f1xx_hal_dma.c **** /* Exported functions ---------------------------------------------------------*/
 130:Drivers/STM32F1xx_HAL_Driver/Src/stm32f1xx_hal_dma.c **** 
 131:Drivers/STM32F1xx_HAL_Driver/Src/stm32f1xx_hal_dma.c **** /** @defgroup DMA_Exported_Functions DMA Exported Functions
 132:Drivers/STM32F1xx_HAL_Driver/Src/stm32f1xx_hal_dma.c ****   * @{
 133:Drivers/STM32F1xx_HAL_Driver/Src/stm32f1xx_hal_dma.c ****   */
 134:Drivers/STM32F1xx_HAL_Driver/Src/stm32f1xx_hal_dma.c **** 
 135:Drivers/STM32F1xx_HAL_Driver/Src/stm32f1xx_hal_dma.c **** /** @defgroup DMA_Exported_Functions_Group1 Initialization and de-initialization functions
 136:Drivers/STM32F1xx_HAL_Driver/Src/stm32f1xx_hal_dma.c ****   *  @brief   Initialization and de-initialization functions 
 137:Drivers/STM32F1xx_HAL_Driver/Src/stm32f1xx_hal_dma.c ****   *
 138:Drivers/STM32F1xx_HAL_Driver/Src/stm32f1xx_hal_dma.c **** @verbatim
 139:Drivers/STM32F1xx_HAL_Driver/Src/stm32f1xx_hal_dma.c ****  ===============================================================================
 140:Drivers/STM32F1xx_HAL_Driver/Src/stm32f1xx_hal_dma.c ****              ##### Initialization and de-initialization functions  #####
 141:Drivers/STM32F1xx_HAL_Driver/Src/stm32f1xx_hal_dma.c ****  ===============================================================================
 142:Drivers/STM32F1xx_HAL_Driver/Src/stm32f1xx_hal_dma.c ****     [..]
 143:Drivers/STM32F1xx_HAL_Driver/Src/stm32f1xx_hal_dma.c ****     This section provides functions allowing to initialize the DMA Channel source
 144:Drivers/STM32F1xx_HAL_Driver/Src/stm32f1xx_hal_dma.c ****     and destination addresses, incrementation and data sizes, transfer direction, 
 145:Drivers/STM32F1xx_HAL_Driver/Src/stm32f1xx_hal_dma.c ****     circular/normal mode selection, memory-to-memory mode selection and Channel priority value.
 146:Drivers/STM32F1xx_HAL_Driver/Src/stm32f1xx_hal_dma.c ****     [..]
 147:Drivers/STM32F1xx_HAL_Driver/Src/stm32f1xx_hal_dma.c ****     The HAL_DMA_Init() function follows the DMA configuration procedures as described in
 148:Drivers/STM32F1xx_HAL_Driver/Src/stm32f1xx_hal_dma.c ****     reference manual.  
ARM GAS  /tmp/cco4PWEh.s 			page 4


 149:Drivers/STM32F1xx_HAL_Driver/Src/stm32f1xx_hal_dma.c **** 
 150:Drivers/STM32F1xx_HAL_Driver/Src/stm32f1xx_hal_dma.c **** @endverbatim
 151:Drivers/STM32F1xx_HAL_Driver/Src/stm32f1xx_hal_dma.c ****   * @{
 152:Drivers/STM32F1xx_HAL_Driver/Src/stm32f1xx_hal_dma.c ****   */
 153:Drivers/STM32F1xx_HAL_Driver/Src/stm32f1xx_hal_dma.c **** 
 154:Drivers/STM32F1xx_HAL_Driver/Src/stm32f1xx_hal_dma.c **** /**
 155:Drivers/STM32F1xx_HAL_Driver/Src/stm32f1xx_hal_dma.c ****   * @brief  Initialize the DMA according to the specified
 156:Drivers/STM32F1xx_HAL_Driver/Src/stm32f1xx_hal_dma.c ****   *         parameters in the DMA_InitTypeDef and initialize the associated handle.
 157:Drivers/STM32F1xx_HAL_Driver/Src/stm32f1xx_hal_dma.c ****   * @param  hdma: Pointer to a DMA_HandleTypeDef structure that contains
 158:Drivers/STM32F1xx_HAL_Driver/Src/stm32f1xx_hal_dma.c ****   *               the configuration information for the specified DMA Channel.
 159:Drivers/STM32F1xx_HAL_Driver/Src/stm32f1xx_hal_dma.c ****   * @retval HAL status
 160:Drivers/STM32F1xx_HAL_Driver/Src/stm32f1xx_hal_dma.c ****   */
 161:Drivers/STM32F1xx_HAL_Driver/Src/stm32f1xx_hal_dma.c **** HAL_StatusTypeDef HAL_DMA_Init(DMA_HandleTypeDef *hdma)
 162:Drivers/STM32F1xx_HAL_Driver/Src/stm32f1xx_hal_dma.c **** {
 163:Drivers/STM32F1xx_HAL_Driver/Src/stm32f1xx_hal_dma.c ****   uint32_t tmp = 0U;
 164:Drivers/STM32F1xx_HAL_Driver/Src/stm32f1xx_hal_dma.c **** 
 165:Drivers/STM32F1xx_HAL_Driver/Src/stm32f1xx_hal_dma.c ****   /* Check the DMA handle allocation */
 166:Drivers/STM32F1xx_HAL_Driver/Src/stm32f1xx_hal_dma.c ****   if(hdma == NULL)
 167:Drivers/STM32F1xx_HAL_Driver/Src/stm32f1xx_hal_dma.c ****   {
 168:Drivers/STM32F1xx_HAL_Driver/Src/stm32f1xx_hal_dma.c ****     return HAL_ERROR;
 169:Drivers/STM32F1xx_HAL_Driver/Src/stm32f1xx_hal_dma.c ****   }
 170:Drivers/STM32F1xx_HAL_Driver/Src/stm32f1xx_hal_dma.c **** 
 171:Drivers/STM32F1xx_HAL_Driver/Src/stm32f1xx_hal_dma.c ****   /* Check the parameters */
 172:Drivers/STM32F1xx_HAL_Driver/Src/stm32f1xx_hal_dma.c ****   assert_param(IS_DMA_ALL_INSTANCE(hdma->Instance));
 173:Drivers/STM32F1xx_HAL_Driver/Src/stm32f1xx_hal_dma.c ****   assert_param(IS_DMA_DIRECTION(hdma->Init.Direction));
 174:Drivers/STM32F1xx_HAL_Driver/Src/stm32f1xx_hal_dma.c ****   assert_param(IS_DMA_PERIPHERAL_INC_STATE(hdma->Init.PeriphInc));
 175:Drivers/STM32F1xx_HAL_Driver/Src/stm32f1xx_hal_dma.c ****   assert_param(IS_DMA_MEMORY_INC_STATE(hdma->Init.MemInc));
 176:Drivers/STM32F1xx_HAL_Driver/Src/stm32f1xx_hal_dma.c ****   assert_param(IS_DMA_PERIPHERAL_DATA_SIZE(hdma->Init.PeriphDataAlignment));
 177:Drivers/STM32F1xx_HAL_Driver/Src/stm32f1xx_hal_dma.c ****   assert_param(IS_DMA_MEMORY_DATA_SIZE(hdma->Init.MemDataAlignment));
 178:Drivers/STM32F1xx_HAL_Driver/Src/stm32f1xx_hal_dma.c ****   assert_param(IS_DMA_MODE(hdma->Init.Mode));
 179:Drivers/STM32F1xx_HAL_Driver/Src/stm32f1xx_hal_dma.c ****   assert_param(IS_DMA_PRIORITY(hdma->Init.Priority));
 180:Drivers/STM32F1xx_HAL_Driver/Src/stm32f1xx_hal_dma.c **** 
 181:Drivers/STM32F1xx_HAL_Driver/Src/stm32f1xx_hal_dma.c **** #if defined (STM32F101xE) || defined (STM32F101xG) || defined (STM32F103xE) || defined (STM32F103xG
 182:Drivers/STM32F1xx_HAL_Driver/Src/stm32f1xx_hal_dma.c ****   /* calculation of the channel index */
 183:Drivers/STM32F1xx_HAL_Driver/Src/stm32f1xx_hal_dma.c ****   if ((uint32_t)(hdma->Instance) < (uint32_t)(DMA2_Channel1))
 184:Drivers/STM32F1xx_HAL_Driver/Src/stm32f1xx_hal_dma.c ****   {
 185:Drivers/STM32F1xx_HAL_Driver/Src/stm32f1xx_hal_dma.c ****     /* DMA1 */
 186:Drivers/STM32F1xx_HAL_Driver/Src/stm32f1xx_hal_dma.c ****     hdma->ChannelIndex = (((uint32_t)hdma->Instance - (uint32_t)DMA1_Channel1) / ((uint32_t)DMA1_Ch
 187:Drivers/STM32F1xx_HAL_Driver/Src/stm32f1xx_hal_dma.c ****     hdma->DmaBaseAddress = DMA1;
 188:Drivers/STM32F1xx_HAL_Driver/Src/stm32f1xx_hal_dma.c ****   }
 189:Drivers/STM32F1xx_HAL_Driver/Src/stm32f1xx_hal_dma.c ****   else 
 190:Drivers/STM32F1xx_HAL_Driver/Src/stm32f1xx_hal_dma.c ****   {
 191:Drivers/STM32F1xx_HAL_Driver/Src/stm32f1xx_hal_dma.c ****     /* DMA2 */
 192:Drivers/STM32F1xx_HAL_Driver/Src/stm32f1xx_hal_dma.c ****     hdma->ChannelIndex = (((uint32_t)hdma->Instance - (uint32_t)DMA2_Channel1) / ((uint32_t)DMA2_Ch
 193:Drivers/STM32F1xx_HAL_Driver/Src/stm32f1xx_hal_dma.c ****     hdma->DmaBaseAddress = DMA2;
 194:Drivers/STM32F1xx_HAL_Driver/Src/stm32f1xx_hal_dma.c ****   }
 195:Drivers/STM32F1xx_HAL_Driver/Src/stm32f1xx_hal_dma.c **** #else
 196:Drivers/STM32F1xx_HAL_Driver/Src/stm32f1xx_hal_dma.c ****   /* DMA1 */
 197:Drivers/STM32F1xx_HAL_Driver/Src/stm32f1xx_hal_dma.c ****   hdma->ChannelIndex = (((uint32_t)hdma->Instance - (uint32_t)DMA1_Channel1) / ((uint32_t)DMA1_Chan
 198:Drivers/STM32F1xx_HAL_Driver/Src/stm32f1xx_hal_dma.c ****   hdma->DmaBaseAddress = DMA1;
 199:Drivers/STM32F1xx_HAL_Driver/Src/stm32f1xx_hal_dma.c **** #endif /* STM32F101xE || STM32F101xG || STM32F103xE || STM32F103xG || STM32F100xE || STM32F105xC ||
 200:Drivers/STM32F1xx_HAL_Driver/Src/stm32f1xx_hal_dma.c **** 
 201:Drivers/STM32F1xx_HAL_Driver/Src/stm32f1xx_hal_dma.c ****   /* Change DMA peripheral state */
 202:Drivers/STM32F1xx_HAL_Driver/Src/stm32f1xx_hal_dma.c ****   hdma->State = HAL_DMA_STATE_BUSY;
 203:Drivers/STM32F1xx_HAL_Driver/Src/stm32f1xx_hal_dma.c **** 
 204:Drivers/STM32F1xx_HAL_Driver/Src/stm32f1xx_hal_dma.c ****   /* Get the CR register value */
 205:Drivers/STM32F1xx_HAL_Driver/Src/stm32f1xx_hal_dma.c ****   tmp = hdma->Instance->CCR;
ARM GAS  /tmp/cco4PWEh.s 			page 5


 206:Drivers/STM32F1xx_HAL_Driver/Src/stm32f1xx_hal_dma.c **** 
 207:Drivers/STM32F1xx_HAL_Driver/Src/stm32f1xx_hal_dma.c ****   /* Clear PL, MSIZE, PSIZE, MINC, PINC, CIRC and DIR bits */
 208:Drivers/STM32F1xx_HAL_Driver/Src/stm32f1xx_hal_dma.c ****   tmp &= ((uint32_t)~(DMA_CCR_PL    | DMA_CCR_MSIZE  | DMA_CCR_PSIZE  | \
 209:Drivers/STM32F1xx_HAL_Driver/Src/stm32f1xx_hal_dma.c ****                       DMA_CCR_MINC  | DMA_CCR_PINC   | DMA_CCR_CIRC   | \
 210:Drivers/STM32F1xx_HAL_Driver/Src/stm32f1xx_hal_dma.c ****                       DMA_CCR_DIR));
 211:Drivers/STM32F1xx_HAL_Driver/Src/stm32f1xx_hal_dma.c **** 
 212:Drivers/STM32F1xx_HAL_Driver/Src/stm32f1xx_hal_dma.c ****   /* Prepare the DMA Channel configuration */
 213:Drivers/STM32F1xx_HAL_Driver/Src/stm32f1xx_hal_dma.c ****   tmp |=  hdma->Init.Direction        |
 214:Drivers/STM32F1xx_HAL_Driver/Src/stm32f1xx_hal_dma.c ****           hdma->Init.PeriphInc           | hdma->Init.MemInc           |
 215:Drivers/STM32F1xx_HAL_Driver/Src/stm32f1xx_hal_dma.c ****           hdma->Init.PeriphDataAlignment | hdma->Init.MemDataAlignment |
 216:Drivers/STM32F1xx_HAL_Driver/Src/stm32f1xx_hal_dma.c ****           hdma->Init.Mode                | hdma->Init.Priority;
 217:Drivers/STM32F1xx_HAL_Driver/Src/stm32f1xx_hal_dma.c **** 
 218:Drivers/STM32F1xx_HAL_Driver/Src/stm32f1xx_hal_dma.c ****   /* Write to DMA Channel CR register */
 219:Drivers/STM32F1xx_HAL_Driver/Src/stm32f1xx_hal_dma.c ****   hdma->Instance->CCR = tmp;
 220:Drivers/STM32F1xx_HAL_Driver/Src/stm32f1xx_hal_dma.c **** 
 221:Drivers/STM32F1xx_HAL_Driver/Src/stm32f1xx_hal_dma.c **** 
 222:Drivers/STM32F1xx_HAL_Driver/Src/stm32f1xx_hal_dma.c ****   /* Clean callbacks */
 223:Drivers/STM32F1xx_HAL_Driver/Src/stm32f1xx_hal_dma.c ****   hdma->XferCpltCallback = NULL;
 224:Drivers/STM32F1xx_HAL_Driver/Src/stm32f1xx_hal_dma.c ****   hdma->XferHalfCpltCallback = NULL;
 225:Drivers/STM32F1xx_HAL_Driver/Src/stm32f1xx_hal_dma.c ****   hdma->XferErrorCallback = NULL;
 226:Drivers/STM32F1xx_HAL_Driver/Src/stm32f1xx_hal_dma.c ****   hdma->XferAbortCallback = NULL;
 227:Drivers/STM32F1xx_HAL_Driver/Src/stm32f1xx_hal_dma.c **** 
 228:Drivers/STM32F1xx_HAL_Driver/Src/stm32f1xx_hal_dma.c ****   /* Initialise the error code */
 229:Drivers/STM32F1xx_HAL_Driver/Src/stm32f1xx_hal_dma.c ****   hdma->ErrorCode = HAL_DMA_ERROR_NONE;
 230:Drivers/STM32F1xx_HAL_Driver/Src/stm32f1xx_hal_dma.c **** 
 231:Drivers/STM32F1xx_HAL_Driver/Src/stm32f1xx_hal_dma.c ****   /* Initialize the DMA state*/
 232:Drivers/STM32F1xx_HAL_Driver/Src/stm32f1xx_hal_dma.c ****   hdma->State = HAL_DMA_STATE_READY;
 233:Drivers/STM32F1xx_HAL_Driver/Src/stm32f1xx_hal_dma.c ****   /* Allocate lock resource and initialize it */
 234:Drivers/STM32F1xx_HAL_Driver/Src/stm32f1xx_hal_dma.c ****   hdma->Lock = HAL_UNLOCKED;
 235:Drivers/STM32F1xx_HAL_Driver/Src/stm32f1xx_hal_dma.c ****   
 236:Drivers/STM32F1xx_HAL_Driver/Src/stm32f1xx_hal_dma.c ****   return HAL_OK;
 237:Drivers/STM32F1xx_HAL_Driver/Src/stm32f1xx_hal_dma.c **** }
 238:Drivers/STM32F1xx_HAL_Driver/Src/stm32f1xx_hal_dma.c **** 
 239:Drivers/STM32F1xx_HAL_Driver/Src/stm32f1xx_hal_dma.c **** /**
 240:Drivers/STM32F1xx_HAL_Driver/Src/stm32f1xx_hal_dma.c ****   * @brief  DeInitialize the DMA peripheral.
 241:Drivers/STM32F1xx_HAL_Driver/Src/stm32f1xx_hal_dma.c ****   * @param  hdma: pointer to a DMA_HandleTypeDef structure that contains
 242:Drivers/STM32F1xx_HAL_Driver/Src/stm32f1xx_hal_dma.c ****   *               the configuration information for the specified DMA Channel.
 243:Drivers/STM32F1xx_HAL_Driver/Src/stm32f1xx_hal_dma.c ****   * @retval HAL status
 244:Drivers/STM32F1xx_HAL_Driver/Src/stm32f1xx_hal_dma.c ****   */
 245:Drivers/STM32F1xx_HAL_Driver/Src/stm32f1xx_hal_dma.c **** HAL_StatusTypeDef HAL_DMA_DeInit(DMA_HandleTypeDef *hdma)
 246:Drivers/STM32F1xx_HAL_Driver/Src/stm32f1xx_hal_dma.c **** {
 247:Drivers/STM32F1xx_HAL_Driver/Src/stm32f1xx_hal_dma.c ****   /* Check the DMA handle allocation */
 248:Drivers/STM32F1xx_HAL_Driver/Src/stm32f1xx_hal_dma.c ****   if(hdma == NULL)
 249:Drivers/STM32F1xx_HAL_Driver/Src/stm32f1xx_hal_dma.c ****   {
 250:Drivers/STM32F1xx_HAL_Driver/Src/stm32f1xx_hal_dma.c ****     return HAL_ERROR;
 251:Drivers/STM32F1xx_HAL_Driver/Src/stm32f1xx_hal_dma.c ****   }
 252:Drivers/STM32F1xx_HAL_Driver/Src/stm32f1xx_hal_dma.c **** 
 253:Drivers/STM32F1xx_HAL_Driver/Src/stm32f1xx_hal_dma.c ****   /* Check the parameters */
 254:Drivers/STM32F1xx_HAL_Driver/Src/stm32f1xx_hal_dma.c ****   assert_param(IS_DMA_ALL_INSTANCE(hdma->Instance));
 255:Drivers/STM32F1xx_HAL_Driver/Src/stm32f1xx_hal_dma.c **** 
 256:Drivers/STM32F1xx_HAL_Driver/Src/stm32f1xx_hal_dma.c ****   /* Disable the selected DMA Channelx */
 257:Drivers/STM32F1xx_HAL_Driver/Src/stm32f1xx_hal_dma.c ****   __HAL_DMA_DISABLE(hdma);
 258:Drivers/STM32F1xx_HAL_Driver/Src/stm32f1xx_hal_dma.c **** 
 259:Drivers/STM32F1xx_HAL_Driver/Src/stm32f1xx_hal_dma.c ****   /* Reset DMA Channel control register */
 260:Drivers/STM32F1xx_HAL_Driver/Src/stm32f1xx_hal_dma.c ****   hdma->Instance->CCR  = 0U;
 261:Drivers/STM32F1xx_HAL_Driver/Src/stm32f1xx_hal_dma.c **** 
 262:Drivers/STM32F1xx_HAL_Driver/Src/stm32f1xx_hal_dma.c ****   /* Reset DMA Channel Number of Data to Transfer register */
ARM GAS  /tmp/cco4PWEh.s 			page 6


 263:Drivers/STM32F1xx_HAL_Driver/Src/stm32f1xx_hal_dma.c ****   hdma->Instance->CNDTR = 0U;
 264:Drivers/STM32F1xx_HAL_Driver/Src/stm32f1xx_hal_dma.c **** 
 265:Drivers/STM32F1xx_HAL_Driver/Src/stm32f1xx_hal_dma.c ****   /* Reset DMA Channel peripheral address register */
 266:Drivers/STM32F1xx_HAL_Driver/Src/stm32f1xx_hal_dma.c ****   hdma->Instance->CPAR  = 0U;
 267:Drivers/STM32F1xx_HAL_Driver/Src/stm32f1xx_hal_dma.c **** 
 268:Drivers/STM32F1xx_HAL_Driver/Src/stm32f1xx_hal_dma.c ****   /* Reset DMA Channel memory address register */
 269:Drivers/STM32F1xx_HAL_Driver/Src/stm32f1xx_hal_dma.c ****   hdma->Instance->CMAR = 0U;
 270:Drivers/STM32F1xx_HAL_Driver/Src/stm32f1xx_hal_dma.c **** 
 271:Drivers/STM32F1xx_HAL_Driver/Src/stm32f1xx_hal_dma.c **** #if defined (STM32F101xE) || defined (STM32F101xG) || defined (STM32F103xE) || defined (STM32F103xG
 272:Drivers/STM32F1xx_HAL_Driver/Src/stm32f1xx_hal_dma.c ****   /* calculation of the channel index */
 273:Drivers/STM32F1xx_HAL_Driver/Src/stm32f1xx_hal_dma.c ****   if ((uint32_t)(hdma->Instance) < (uint32_t)(DMA2_Channel1))
 274:Drivers/STM32F1xx_HAL_Driver/Src/stm32f1xx_hal_dma.c ****   {
 275:Drivers/STM32F1xx_HAL_Driver/Src/stm32f1xx_hal_dma.c ****     /* DMA1 */
 276:Drivers/STM32F1xx_HAL_Driver/Src/stm32f1xx_hal_dma.c ****     hdma->ChannelIndex = (((uint32_t)hdma->Instance - (uint32_t)DMA1_Channel1) / ((uint32_t)DMA1_Ch
 277:Drivers/STM32F1xx_HAL_Driver/Src/stm32f1xx_hal_dma.c ****     hdma->DmaBaseAddress = DMA1;
 278:Drivers/STM32F1xx_HAL_Driver/Src/stm32f1xx_hal_dma.c ****   }
 279:Drivers/STM32F1xx_HAL_Driver/Src/stm32f1xx_hal_dma.c ****   else 
 280:Drivers/STM32F1xx_HAL_Driver/Src/stm32f1xx_hal_dma.c ****   {
 281:Drivers/STM32F1xx_HAL_Driver/Src/stm32f1xx_hal_dma.c ****     /* DMA2 */
 282:Drivers/STM32F1xx_HAL_Driver/Src/stm32f1xx_hal_dma.c ****     hdma->ChannelIndex = (((uint32_t)hdma->Instance - (uint32_t)DMA2_Channel1) / ((uint32_t)DMA2_Ch
 283:Drivers/STM32F1xx_HAL_Driver/Src/stm32f1xx_hal_dma.c ****     hdma->DmaBaseAddress = DMA2;
 284:Drivers/STM32F1xx_HAL_Driver/Src/stm32f1xx_hal_dma.c ****   }
 285:Drivers/STM32F1xx_HAL_Driver/Src/stm32f1xx_hal_dma.c **** #else
 286:Drivers/STM32F1xx_HAL_Driver/Src/stm32f1xx_hal_dma.c ****   /* DMA1 */
 287:Drivers/STM32F1xx_HAL_Driver/Src/stm32f1xx_hal_dma.c ****   hdma->ChannelIndex = (((uint32_t)hdma->Instance - (uint32_t)DMA1_Channel1) / ((uint32_t)DMA1_Chan
 288:Drivers/STM32F1xx_HAL_Driver/Src/stm32f1xx_hal_dma.c ****   hdma->DmaBaseAddress = DMA1;
 289:Drivers/STM32F1xx_HAL_Driver/Src/stm32f1xx_hal_dma.c **** #endif /* STM32F101xE || STM32F101xG || STM32F103xE || STM32F103xG || STM32F100xE || STM32F105xC ||
 290:Drivers/STM32F1xx_HAL_Driver/Src/stm32f1xx_hal_dma.c **** 
 291:Drivers/STM32F1xx_HAL_Driver/Src/stm32f1xx_hal_dma.c ****   /* Clear all flags */
 292:Drivers/STM32F1xx_HAL_Driver/Src/stm32f1xx_hal_dma.c ****   hdma->DmaBaseAddress->IFCR = (DMA_ISR_GIF1 << (hdma->ChannelIndex));
 293:Drivers/STM32F1xx_HAL_Driver/Src/stm32f1xx_hal_dma.c **** 
 294:Drivers/STM32F1xx_HAL_Driver/Src/stm32f1xx_hal_dma.c ****   /* Initialize the error code */
 295:Drivers/STM32F1xx_HAL_Driver/Src/stm32f1xx_hal_dma.c ****   hdma->ErrorCode = HAL_DMA_ERROR_NONE;
 296:Drivers/STM32F1xx_HAL_Driver/Src/stm32f1xx_hal_dma.c **** 
 297:Drivers/STM32F1xx_HAL_Driver/Src/stm32f1xx_hal_dma.c ****   /* Initialize the DMA state */
 298:Drivers/STM32F1xx_HAL_Driver/Src/stm32f1xx_hal_dma.c ****   hdma->State = HAL_DMA_STATE_RESET;
 299:Drivers/STM32F1xx_HAL_Driver/Src/stm32f1xx_hal_dma.c **** 
 300:Drivers/STM32F1xx_HAL_Driver/Src/stm32f1xx_hal_dma.c ****   /* Release Lock */
 301:Drivers/STM32F1xx_HAL_Driver/Src/stm32f1xx_hal_dma.c ****   __HAL_UNLOCK(hdma);
 302:Drivers/STM32F1xx_HAL_Driver/Src/stm32f1xx_hal_dma.c **** 
 303:Drivers/STM32F1xx_HAL_Driver/Src/stm32f1xx_hal_dma.c ****   return HAL_OK;
 304:Drivers/STM32F1xx_HAL_Driver/Src/stm32f1xx_hal_dma.c **** }
 305:Drivers/STM32F1xx_HAL_Driver/Src/stm32f1xx_hal_dma.c **** 
 306:Drivers/STM32F1xx_HAL_Driver/Src/stm32f1xx_hal_dma.c **** /**
 307:Drivers/STM32F1xx_HAL_Driver/Src/stm32f1xx_hal_dma.c ****   * @}
 308:Drivers/STM32F1xx_HAL_Driver/Src/stm32f1xx_hal_dma.c ****   */
 309:Drivers/STM32F1xx_HAL_Driver/Src/stm32f1xx_hal_dma.c **** 
 310:Drivers/STM32F1xx_HAL_Driver/Src/stm32f1xx_hal_dma.c **** /** @defgroup DMA_Exported_Functions_Group2 Input and Output operation functions
 311:Drivers/STM32F1xx_HAL_Driver/Src/stm32f1xx_hal_dma.c ****   *  @brief   Input and Output operation functions
 312:Drivers/STM32F1xx_HAL_Driver/Src/stm32f1xx_hal_dma.c ****   *
 313:Drivers/STM32F1xx_HAL_Driver/Src/stm32f1xx_hal_dma.c **** @verbatim
 314:Drivers/STM32F1xx_HAL_Driver/Src/stm32f1xx_hal_dma.c ****  ===============================================================================
 315:Drivers/STM32F1xx_HAL_Driver/Src/stm32f1xx_hal_dma.c ****                       #####  IO operation functions  #####
 316:Drivers/STM32F1xx_HAL_Driver/Src/stm32f1xx_hal_dma.c ****  ===============================================================================
 317:Drivers/STM32F1xx_HAL_Driver/Src/stm32f1xx_hal_dma.c ****     [..]  This section provides functions allowing to:
 318:Drivers/STM32F1xx_HAL_Driver/Src/stm32f1xx_hal_dma.c ****       (+) Configure the source, destination address and data length and Start DMA transfer
 319:Drivers/STM32F1xx_HAL_Driver/Src/stm32f1xx_hal_dma.c ****       (+) Configure the source, destination address and data length and
ARM GAS  /tmp/cco4PWEh.s 			page 7


 320:Drivers/STM32F1xx_HAL_Driver/Src/stm32f1xx_hal_dma.c ****           Start DMA transfer with interrupt
 321:Drivers/STM32F1xx_HAL_Driver/Src/stm32f1xx_hal_dma.c ****       (+) Abort DMA transfer
 322:Drivers/STM32F1xx_HAL_Driver/Src/stm32f1xx_hal_dma.c ****       (+) Poll for transfer complete
 323:Drivers/STM32F1xx_HAL_Driver/Src/stm32f1xx_hal_dma.c ****       (+) Handle DMA interrupt request
 324:Drivers/STM32F1xx_HAL_Driver/Src/stm32f1xx_hal_dma.c **** 
 325:Drivers/STM32F1xx_HAL_Driver/Src/stm32f1xx_hal_dma.c **** @endverbatim
 326:Drivers/STM32F1xx_HAL_Driver/Src/stm32f1xx_hal_dma.c ****   * @{
 327:Drivers/STM32F1xx_HAL_Driver/Src/stm32f1xx_hal_dma.c ****   */
 328:Drivers/STM32F1xx_HAL_Driver/Src/stm32f1xx_hal_dma.c **** 
 329:Drivers/STM32F1xx_HAL_Driver/Src/stm32f1xx_hal_dma.c **** /**
 330:Drivers/STM32F1xx_HAL_Driver/Src/stm32f1xx_hal_dma.c ****   * @brief  Start the DMA Transfer.
 331:Drivers/STM32F1xx_HAL_Driver/Src/stm32f1xx_hal_dma.c ****   * @param  hdma: pointer to a DMA_HandleTypeDef structure that contains
 332:Drivers/STM32F1xx_HAL_Driver/Src/stm32f1xx_hal_dma.c ****   *               the configuration information for the specified DMA Channel.
 333:Drivers/STM32F1xx_HAL_Driver/Src/stm32f1xx_hal_dma.c ****   * @param  SrcAddress: The source memory Buffer address
 334:Drivers/STM32F1xx_HAL_Driver/Src/stm32f1xx_hal_dma.c ****   * @param  DstAddress: The destination memory Buffer address
 335:Drivers/STM32F1xx_HAL_Driver/Src/stm32f1xx_hal_dma.c ****   * @param  DataLength: The length of data to be transferred from source to destination
 336:Drivers/STM32F1xx_HAL_Driver/Src/stm32f1xx_hal_dma.c ****   * @retval HAL status
 337:Drivers/STM32F1xx_HAL_Driver/Src/stm32f1xx_hal_dma.c ****   */
 338:Drivers/STM32F1xx_HAL_Driver/Src/stm32f1xx_hal_dma.c **** HAL_StatusTypeDef HAL_DMA_Start(DMA_HandleTypeDef *hdma, uint32_t SrcAddress, uint32_t DstAddress, 
 339:Drivers/STM32F1xx_HAL_Driver/Src/stm32f1xx_hal_dma.c **** {
 340:Drivers/STM32F1xx_HAL_Driver/Src/stm32f1xx_hal_dma.c ****   HAL_StatusTypeDef status = HAL_OK;
 341:Drivers/STM32F1xx_HAL_Driver/Src/stm32f1xx_hal_dma.c **** 
 342:Drivers/STM32F1xx_HAL_Driver/Src/stm32f1xx_hal_dma.c ****   /* Check the parameters */
 343:Drivers/STM32F1xx_HAL_Driver/Src/stm32f1xx_hal_dma.c ****   assert_param(IS_DMA_BUFFER_SIZE(DataLength));
 344:Drivers/STM32F1xx_HAL_Driver/Src/stm32f1xx_hal_dma.c **** 
 345:Drivers/STM32F1xx_HAL_Driver/Src/stm32f1xx_hal_dma.c ****   /* Process locked */
 346:Drivers/STM32F1xx_HAL_Driver/Src/stm32f1xx_hal_dma.c ****   __HAL_LOCK(hdma);
 347:Drivers/STM32F1xx_HAL_Driver/Src/stm32f1xx_hal_dma.c **** 
 348:Drivers/STM32F1xx_HAL_Driver/Src/stm32f1xx_hal_dma.c ****   if(HAL_DMA_STATE_READY == hdma->State)
 349:Drivers/STM32F1xx_HAL_Driver/Src/stm32f1xx_hal_dma.c ****   {
 350:Drivers/STM32F1xx_HAL_Driver/Src/stm32f1xx_hal_dma.c ****     /* Change DMA peripheral state */
 351:Drivers/STM32F1xx_HAL_Driver/Src/stm32f1xx_hal_dma.c ****     hdma->State = HAL_DMA_STATE_BUSY;
 352:Drivers/STM32F1xx_HAL_Driver/Src/stm32f1xx_hal_dma.c ****     hdma->ErrorCode = HAL_DMA_ERROR_NONE;
 353:Drivers/STM32F1xx_HAL_Driver/Src/stm32f1xx_hal_dma.c ****             
 354:Drivers/STM32F1xx_HAL_Driver/Src/stm32f1xx_hal_dma.c ****     /* Disable the peripheral */
 355:Drivers/STM32F1xx_HAL_Driver/Src/stm32f1xx_hal_dma.c ****     __HAL_DMA_DISABLE(hdma);
 356:Drivers/STM32F1xx_HAL_Driver/Src/stm32f1xx_hal_dma.c ****     
 357:Drivers/STM32F1xx_HAL_Driver/Src/stm32f1xx_hal_dma.c ****     /* Configure the source, destination address and the data length & clear flags*/
 358:Drivers/STM32F1xx_HAL_Driver/Src/stm32f1xx_hal_dma.c ****     DMA_SetConfig(hdma, SrcAddress, DstAddress, DataLength);
 359:Drivers/STM32F1xx_HAL_Driver/Src/stm32f1xx_hal_dma.c ****     
 360:Drivers/STM32F1xx_HAL_Driver/Src/stm32f1xx_hal_dma.c ****     /* Enable the Peripheral */
 361:Drivers/STM32F1xx_HAL_Driver/Src/stm32f1xx_hal_dma.c ****     __HAL_DMA_ENABLE(hdma);
 362:Drivers/STM32F1xx_HAL_Driver/Src/stm32f1xx_hal_dma.c ****   }
 363:Drivers/STM32F1xx_HAL_Driver/Src/stm32f1xx_hal_dma.c ****   else
 364:Drivers/STM32F1xx_HAL_Driver/Src/stm32f1xx_hal_dma.c ****   {
 365:Drivers/STM32F1xx_HAL_Driver/Src/stm32f1xx_hal_dma.c ****    /* Process Unlocked */
 366:Drivers/STM32F1xx_HAL_Driver/Src/stm32f1xx_hal_dma.c ****    __HAL_UNLOCK(hdma);  
 367:Drivers/STM32F1xx_HAL_Driver/Src/stm32f1xx_hal_dma.c ****    status = HAL_BUSY;
 368:Drivers/STM32F1xx_HAL_Driver/Src/stm32f1xx_hal_dma.c ****   }  
 369:Drivers/STM32F1xx_HAL_Driver/Src/stm32f1xx_hal_dma.c ****   return status;
 370:Drivers/STM32F1xx_HAL_Driver/Src/stm32f1xx_hal_dma.c **** }
 371:Drivers/STM32F1xx_HAL_Driver/Src/stm32f1xx_hal_dma.c **** 
 372:Drivers/STM32F1xx_HAL_Driver/Src/stm32f1xx_hal_dma.c **** /**
 373:Drivers/STM32F1xx_HAL_Driver/Src/stm32f1xx_hal_dma.c ****   * @brief  Start the DMA Transfer with interrupt enabled.
 374:Drivers/STM32F1xx_HAL_Driver/Src/stm32f1xx_hal_dma.c ****   * @param  hdma: pointer to a DMA_HandleTypeDef structure that contains
 375:Drivers/STM32F1xx_HAL_Driver/Src/stm32f1xx_hal_dma.c ****   *               the configuration information for the specified DMA Channel.
 376:Drivers/STM32F1xx_HAL_Driver/Src/stm32f1xx_hal_dma.c ****   * @param  SrcAddress: The source memory Buffer address
ARM GAS  /tmp/cco4PWEh.s 			page 8


 377:Drivers/STM32F1xx_HAL_Driver/Src/stm32f1xx_hal_dma.c ****   * @param  DstAddress: The destination memory Buffer address
 378:Drivers/STM32F1xx_HAL_Driver/Src/stm32f1xx_hal_dma.c ****   * @param  DataLength: The length of data to be transferred from source to destination
 379:Drivers/STM32F1xx_HAL_Driver/Src/stm32f1xx_hal_dma.c ****   * @retval HAL status
 380:Drivers/STM32F1xx_HAL_Driver/Src/stm32f1xx_hal_dma.c ****   */
 381:Drivers/STM32F1xx_HAL_Driver/Src/stm32f1xx_hal_dma.c **** HAL_StatusTypeDef HAL_DMA_Start_IT(DMA_HandleTypeDef *hdma, uint32_t SrcAddress, uint32_t DstAddres
 382:Drivers/STM32F1xx_HAL_Driver/Src/stm32f1xx_hal_dma.c **** {
 383:Drivers/STM32F1xx_HAL_Driver/Src/stm32f1xx_hal_dma.c ****   HAL_StatusTypeDef status = HAL_OK;
 384:Drivers/STM32F1xx_HAL_Driver/Src/stm32f1xx_hal_dma.c **** 
 385:Drivers/STM32F1xx_HAL_Driver/Src/stm32f1xx_hal_dma.c ****   /* Check the parameters */
 386:Drivers/STM32F1xx_HAL_Driver/Src/stm32f1xx_hal_dma.c ****   assert_param(IS_DMA_BUFFER_SIZE(DataLength));
 387:Drivers/STM32F1xx_HAL_Driver/Src/stm32f1xx_hal_dma.c **** 
 388:Drivers/STM32F1xx_HAL_Driver/Src/stm32f1xx_hal_dma.c ****   /* Process locked */
 389:Drivers/STM32F1xx_HAL_Driver/Src/stm32f1xx_hal_dma.c ****   __HAL_LOCK(hdma);
 390:Drivers/STM32F1xx_HAL_Driver/Src/stm32f1xx_hal_dma.c ****   
 391:Drivers/STM32F1xx_HAL_Driver/Src/stm32f1xx_hal_dma.c ****   if(HAL_DMA_STATE_READY == hdma->State)
 392:Drivers/STM32F1xx_HAL_Driver/Src/stm32f1xx_hal_dma.c ****   {
 393:Drivers/STM32F1xx_HAL_Driver/Src/stm32f1xx_hal_dma.c ****     /* Change DMA peripheral state */
 394:Drivers/STM32F1xx_HAL_Driver/Src/stm32f1xx_hal_dma.c ****     hdma->State = HAL_DMA_STATE_BUSY;
 395:Drivers/STM32F1xx_HAL_Driver/Src/stm32f1xx_hal_dma.c ****     hdma->ErrorCode = HAL_DMA_ERROR_NONE;
 396:Drivers/STM32F1xx_HAL_Driver/Src/stm32f1xx_hal_dma.c ****     
 397:Drivers/STM32F1xx_HAL_Driver/Src/stm32f1xx_hal_dma.c ****     /* Disable the peripheral */
 398:Drivers/STM32F1xx_HAL_Driver/Src/stm32f1xx_hal_dma.c ****     __HAL_DMA_DISABLE(hdma);
 399:Drivers/STM32F1xx_HAL_Driver/Src/stm32f1xx_hal_dma.c ****     
 400:Drivers/STM32F1xx_HAL_Driver/Src/stm32f1xx_hal_dma.c ****     /* Configure the source, destination address and the data length & clear flags*/
 401:Drivers/STM32F1xx_HAL_Driver/Src/stm32f1xx_hal_dma.c ****     DMA_SetConfig(hdma, SrcAddress, DstAddress, DataLength);
 402:Drivers/STM32F1xx_HAL_Driver/Src/stm32f1xx_hal_dma.c ****     
 403:Drivers/STM32F1xx_HAL_Driver/Src/stm32f1xx_hal_dma.c ****     /* Enable the transfer complete interrupt */
 404:Drivers/STM32F1xx_HAL_Driver/Src/stm32f1xx_hal_dma.c ****     /* Enable the transfer Error interrupt */
 405:Drivers/STM32F1xx_HAL_Driver/Src/stm32f1xx_hal_dma.c ****     if(NULL != hdma->XferHalfCpltCallback)
 406:Drivers/STM32F1xx_HAL_Driver/Src/stm32f1xx_hal_dma.c ****     {
 407:Drivers/STM32F1xx_HAL_Driver/Src/stm32f1xx_hal_dma.c ****       /* Enable the Half transfer complete interrupt as well */
 408:Drivers/STM32F1xx_HAL_Driver/Src/stm32f1xx_hal_dma.c ****       __HAL_DMA_ENABLE_IT(hdma, (DMA_IT_TC | DMA_IT_HT | DMA_IT_TE));
 409:Drivers/STM32F1xx_HAL_Driver/Src/stm32f1xx_hal_dma.c ****     }
 410:Drivers/STM32F1xx_HAL_Driver/Src/stm32f1xx_hal_dma.c ****     else
 411:Drivers/STM32F1xx_HAL_Driver/Src/stm32f1xx_hal_dma.c ****     {
 412:Drivers/STM32F1xx_HAL_Driver/Src/stm32f1xx_hal_dma.c ****       __HAL_DMA_DISABLE_IT(hdma, DMA_IT_HT);
 413:Drivers/STM32F1xx_HAL_Driver/Src/stm32f1xx_hal_dma.c ****       __HAL_DMA_ENABLE_IT(hdma, (DMA_IT_TC | DMA_IT_TE));
 414:Drivers/STM32F1xx_HAL_Driver/Src/stm32f1xx_hal_dma.c ****     }
 415:Drivers/STM32F1xx_HAL_Driver/Src/stm32f1xx_hal_dma.c ****     /* Enable the Peripheral */
 416:Drivers/STM32F1xx_HAL_Driver/Src/stm32f1xx_hal_dma.c ****     __HAL_DMA_ENABLE(hdma);
 417:Drivers/STM32F1xx_HAL_Driver/Src/stm32f1xx_hal_dma.c ****   }
 418:Drivers/STM32F1xx_HAL_Driver/Src/stm32f1xx_hal_dma.c ****   else
 419:Drivers/STM32F1xx_HAL_Driver/Src/stm32f1xx_hal_dma.c ****   {      
 420:Drivers/STM32F1xx_HAL_Driver/Src/stm32f1xx_hal_dma.c ****     /* Process Unlocked */
 421:Drivers/STM32F1xx_HAL_Driver/Src/stm32f1xx_hal_dma.c ****     __HAL_UNLOCK(hdma); 
 422:Drivers/STM32F1xx_HAL_Driver/Src/stm32f1xx_hal_dma.c **** 
 423:Drivers/STM32F1xx_HAL_Driver/Src/stm32f1xx_hal_dma.c ****     /* Remain BUSY */
 424:Drivers/STM32F1xx_HAL_Driver/Src/stm32f1xx_hal_dma.c ****     status = HAL_BUSY;
 425:Drivers/STM32F1xx_HAL_Driver/Src/stm32f1xx_hal_dma.c ****   }    
 426:Drivers/STM32F1xx_HAL_Driver/Src/stm32f1xx_hal_dma.c ****   return status;
 427:Drivers/STM32F1xx_HAL_Driver/Src/stm32f1xx_hal_dma.c **** }
 428:Drivers/STM32F1xx_HAL_Driver/Src/stm32f1xx_hal_dma.c **** 
 429:Drivers/STM32F1xx_HAL_Driver/Src/stm32f1xx_hal_dma.c **** /**
 430:Drivers/STM32F1xx_HAL_Driver/Src/stm32f1xx_hal_dma.c ****   * @brief  Abort the DMA Transfer.
 431:Drivers/STM32F1xx_HAL_Driver/Src/stm32f1xx_hal_dma.c ****   * @param  hdma: pointer to a DMA_HandleTypeDef structure that contains
 432:Drivers/STM32F1xx_HAL_Driver/Src/stm32f1xx_hal_dma.c ****   *               the configuration information for the specified DMA Channel.
 433:Drivers/STM32F1xx_HAL_Driver/Src/stm32f1xx_hal_dma.c ****   * @retval HAL status
ARM GAS  /tmp/cco4PWEh.s 			page 9


 434:Drivers/STM32F1xx_HAL_Driver/Src/stm32f1xx_hal_dma.c ****   */
 435:Drivers/STM32F1xx_HAL_Driver/Src/stm32f1xx_hal_dma.c **** HAL_StatusTypeDef HAL_DMA_Abort(DMA_HandleTypeDef *hdma)
 436:Drivers/STM32F1xx_HAL_Driver/Src/stm32f1xx_hal_dma.c **** {
 437:Drivers/STM32F1xx_HAL_Driver/Src/stm32f1xx_hal_dma.c ****   HAL_StatusTypeDef status = HAL_OK;
 438:Drivers/STM32F1xx_HAL_Driver/Src/stm32f1xx_hal_dma.c **** 
 439:Drivers/STM32F1xx_HAL_Driver/Src/stm32f1xx_hal_dma.c ****   /* Disable DMA IT */
 440:Drivers/STM32F1xx_HAL_Driver/Src/stm32f1xx_hal_dma.c ****   __HAL_DMA_DISABLE_IT(hdma, (DMA_IT_TC | DMA_IT_HT | DMA_IT_TE));
 441:Drivers/STM32F1xx_HAL_Driver/Src/stm32f1xx_hal_dma.c ****     
 442:Drivers/STM32F1xx_HAL_Driver/Src/stm32f1xx_hal_dma.c ****   /* Disable the channel */
 443:Drivers/STM32F1xx_HAL_Driver/Src/stm32f1xx_hal_dma.c ****   __HAL_DMA_DISABLE(hdma);
 444:Drivers/STM32F1xx_HAL_Driver/Src/stm32f1xx_hal_dma.c ****     
 445:Drivers/STM32F1xx_HAL_Driver/Src/stm32f1xx_hal_dma.c ****   /* Clear all flags */
 446:Drivers/STM32F1xx_HAL_Driver/Src/stm32f1xx_hal_dma.c ****   hdma->DmaBaseAddress->IFCR = (DMA_ISR_GIF1 << hdma->ChannelIndex);
 447:Drivers/STM32F1xx_HAL_Driver/Src/stm32f1xx_hal_dma.c **** 
 448:Drivers/STM32F1xx_HAL_Driver/Src/stm32f1xx_hal_dma.c ****   /* Change the DMA state */
 449:Drivers/STM32F1xx_HAL_Driver/Src/stm32f1xx_hal_dma.c ****   hdma->State = HAL_DMA_STATE_READY;
 450:Drivers/STM32F1xx_HAL_Driver/Src/stm32f1xx_hal_dma.c **** 
 451:Drivers/STM32F1xx_HAL_Driver/Src/stm32f1xx_hal_dma.c ****   /* Process Unlocked */
 452:Drivers/STM32F1xx_HAL_Driver/Src/stm32f1xx_hal_dma.c ****   __HAL_UNLOCK(hdma);      
 453:Drivers/STM32F1xx_HAL_Driver/Src/stm32f1xx_hal_dma.c ****   
 454:Drivers/STM32F1xx_HAL_Driver/Src/stm32f1xx_hal_dma.c ****   return status; 
 455:Drivers/STM32F1xx_HAL_Driver/Src/stm32f1xx_hal_dma.c **** }
 456:Drivers/STM32F1xx_HAL_Driver/Src/stm32f1xx_hal_dma.c **** 
 457:Drivers/STM32F1xx_HAL_Driver/Src/stm32f1xx_hal_dma.c **** /**
 458:Drivers/STM32F1xx_HAL_Driver/Src/stm32f1xx_hal_dma.c ****   * @brief  Aborts the DMA Transfer in Interrupt mode.
 459:Drivers/STM32F1xx_HAL_Driver/Src/stm32f1xx_hal_dma.c ****   * @param  hdma  : pointer to a DMA_HandleTypeDef structure that contains
 460:Drivers/STM32F1xx_HAL_Driver/Src/stm32f1xx_hal_dma.c ****   *                 the configuration information for the specified DMA Channel.
 461:Drivers/STM32F1xx_HAL_Driver/Src/stm32f1xx_hal_dma.c ****   * @retval HAL status
 462:Drivers/STM32F1xx_HAL_Driver/Src/stm32f1xx_hal_dma.c ****   */
 463:Drivers/STM32F1xx_HAL_Driver/Src/stm32f1xx_hal_dma.c **** HAL_StatusTypeDef HAL_DMA_Abort_IT(DMA_HandleTypeDef *hdma)
 464:Drivers/STM32F1xx_HAL_Driver/Src/stm32f1xx_hal_dma.c **** {  
 465:Drivers/STM32F1xx_HAL_Driver/Src/stm32f1xx_hal_dma.c ****   HAL_StatusTypeDef status = HAL_OK;
 466:Drivers/STM32F1xx_HAL_Driver/Src/stm32f1xx_hal_dma.c ****   
 467:Drivers/STM32F1xx_HAL_Driver/Src/stm32f1xx_hal_dma.c ****   if(HAL_DMA_STATE_BUSY != hdma->State)
 468:Drivers/STM32F1xx_HAL_Driver/Src/stm32f1xx_hal_dma.c ****   {
 469:Drivers/STM32F1xx_HAL_Driver/Src/stm32f1xx_hal_dma.c ****     /* no transfer ongoing */
 470:Drivers/STM32F1xx_HAL_Driver/Src/stm32f1xx_hal_dma.c ****     hdma->ErrorCode = HAL_DMA_ERROR_NO_XFER;
 471:Drivers/STM32F1xx_HAL_Driver/Src/stm32f1xx_hal_dma.c ****         
 472:Drivers/STM32F1xx_HAL_Driver/Src/stm32f1xx_hal_dma.c ****     status = HAL_ERROR;
 473:Drivers/STM32F1xx_HAL_Driver/Src/stm32f1xx_hal_dma.c ****   }
 474:Drivers/STM32F1xx_HAL_Driver/Src/stm32f1xx_hal_dma.c ****   else
 475:Drivers/STM32F1xx_HAL_Driver/Src/stm32f1xx_hal_dma.c ****   { 
 476:Drivers/STM32F1xx_HAL_Driver/Src/stm32f1xx_hal_dma.c ****     /* Disable DMA IT */
 477:Drivers/STM32F1xx_HAL_Driver/Src/stm32f1xx_hal_dma.c ****     __HAL_DMA_DISABLE_IT(hdma, (DMA_IT_TC | DMA_IT_HT | DMA_IT_TE));
 478:Drivers/STM32F1xx_HAL_Driver/Src/stm32f1xx_hal_dma.c **** 
 479:Drivers/STM32F1xx_HAL_Driver/Src/stm32f1xx_hal_dma.c ****     /* Disable the channel */
 480:Drivers/STM32F1xx_HAL_Driver/Src/stm32f1xx_hal_dma.c ****     __HAL_DMA_DISABLE(hdma);
 481:Drivers/STM32F1xx_HAL_Driver/Src/stm32f1xx_hal_dma.c **** 
 482:Drivers/STM32F1xx_HAL_Driver/Src/stm32f1xx_hal_dma.c ****     /* Clear all flags */
 483:Drivers/STM32F1xx_HAL_Driver/Src/stm32f1xx_hal_dma.c ****     __HAL_DMA_CLEAR_FLAG(hdma, __HAL_DMA_GET_GI_FLAG_INDEX(hdma));
 484:Drivers/STM32F1xx_HAL_Driver/Src/stm32f1xx_hal_dma.c **** 
 485:Drivers/STM32F1xx_HAL_Driver/Src/stm32f1xx_hal_dma.c ****     /* Change the DMA state */
 486:Drivers/STM32F1xx_HAL_Driver/Src/stm32f1xx_hal_dma.c ****     hdma->State = HAL_DMA_STATE_READY;
 487:Drivers/STM32F1xx_HAL_Driver/Src/stm32f1xx_hal_dma.c **** 
 488:Drivers/STM32F1xx_HAL_Driver/Src/stm32f1xx_hal_dma.c ****     /* Process Unlocked */
 489:Drivers/STM32F1xx_HAL_Driver/Src/stm32f1xx_hal_dma.c ****     __HAL_UNLOCK(hdma);
 490:Drivers/STM32F1xx_HAL_Driver/Src/stm32f1xx_hal_dma.c **** 
ARM GAS  /tmp/cco4PWEh.s 			page 10


 491:Drivers/STM32F1xx_HAL_Driver/Src/stm32f1xx_hal_dma.c ****     /* Call User Abort callback */
 492:Drivers/STM32F1xx_HAL_Driver/Src/stm32f1xx_hal_dma.c ****     if(hdma->XferAbortCallback != NULL)
 493:Drivers/STM32F1xx_HAL_Driver/Src/stm32f1xx_hal_dma.c ****     {
 494:Drivers/STM32F1xx_HAL_Driver/Src/stm32f1xx_hal_dma.c ****       hdma->XferAbortCallback(hdma);
 495:Drivers/STM32F1xx_HAL_Driver/Src/stm32f1xx_hal_dma.c ****     } 
 496:Drivers/STM32F1xx_HAL_Driver/Src/stm32f1xx_hal_dma.c ****   }
 497:Drivers/STM32F1xx_HAL_Driver/Src/stm32f1xx_hal_dma.c ****   return status;
 498:Drivers/STM32F1xx_HAL_Driver/Src/stm32f1xx_hal_dma.c **** }
 499:Drivers/STM32F1xx_HAL_Driver/Src/stm32f1xx_hal_dma.c **** 
 500:Drivers/STM32F1xx_HAL_Driver/Src/stm32f1xx_hal_dma.c **** /**
 501:Drivers/STM32F1xx_HAL_Driver/Src/stm32f1xx_hal_dma.c ****   * @brief  Polling for transfer complete.
 502:Drivers/STM32F1xx_HAL_Driver/Src/stm32f1xx_hal_dma.c ****   * @param  hdma:    pointer to a DMA_HandleTypeDef structure that contains
 503:Drivers/STM32F1xx_HAL_Driver/Src/stm32f1xx_hal_dma.c ****   *                  the configuration information for the specified DMA Channel.
 504:Drivers/STM32F1xx_HAL_Driver/Src/stm32f1xx_hal_dma.c ****   * @param  CompleteLevel: Specifies the DMA level complete.
 505:Drivers/STM32F1xx_HAL_Driver/Src/stm32f1xx_hal_dma.c ****   * @param  Timeout:       Timeout duration.
 506:Drivers/STM32F1xx_HAL_Driver/Src/stm32f1xx_hal_dma.c ****   * @retval HAL status
 507:Drivers/STM32F1xx_HAL_Driver/Src/stm32f1xx_hal_dma.c ****   */
 508:Drivers/STM32F1xx_HAL_Driver/Src/stm32f1xx_hal_dma.c **** HAL_StatusTypeDef HAL_DMA_PollForTransfer(DMA_HandleTypeDef *hdma, uint32_t CompleteLevel, uint32_t
 509:Drivers/STM32F1xx_HAL_Driver/Src/stm32f1xx_hal_dma.c **** {
 510:Drivers/STM32F1xx_HAL_Driver/Src/stm32f1xx_hal_dma.c ****   uint32_t temp;
 511:Drivers/STM32F1xx_HAL_Driver/Src/stm32f1xx_hal_dma.c ****   uint32_t tickstart = 0U;
 512:Drivers/STM32F1xx_HAL_Driver/Src/stm32f1xx_hal_dma.c **** 
 513:Drivers/STM32F1xx_HAL_Driver/Src/stm32f1xx_hal_dma.c ****   if(HAL_DMA_STATE_BUSY != hdma->State)
 514:Drivers/STM32F1xx_HAL_Driver/Src/stm32f1xx_hal_dma.c ****   {
 515:Drivers/STM32F1xx_HAL_Driver/Src/stm32f1xx_hal_dma.c ****     /* no transfer ongoing */
 516:Drivers/STM32F1xx_HAL_Driver/Src/stm32f1xx_hal_dma.c ****     hdma->ErrorCode = HAL_DMA_ERROR_NO_XFER;
 517:Drivers/STM32F1xx_HAL_Driver/Src/stm32f1xx_hal_dma.c ****     __HAL_UNLOCK(hdma);
 518:Drivers/STM32F1xx_HAL_Driver/Src/stm32f1xx_hal_dma.c ****     return HAL_ERROR;
 519:Drivers/STM32F1xx_HAL_Driver/Src/stm32f1xx_hal_dma.c ****   }
 520:Drivers/STM32F1xx_HAL_Driver/Src/stm32f1xx_hal_dma.c **** 
 521:Drivers/STM32F1xx_HAL_Driver/Src/stm32f1xx_hal_dma.c ****   /* Polling mode not supported in circular mode */
 522:Drivers/STM32F1xx_HAL_Driver/Src/stm32f1xx_hal_dma.c ****   if (RESET != (hdma->Instance->CCR & DMA_CCR_CIRC))
 523:Drivers/STM32F1xx_HAL_Driver/Src/stm32f1xx_hal_dma.c ****   {
 524:Drivers/STM32F1xx_HAL_Driver/Src/stm32f1xx_hal_dma.c ****     hdma->ErrorCode = HAL_DMA_ERROR_NOT_SUPPORTED;
 525:Drivers/STM32F1xx_HAL_Driver/Src/stm32f1xx_hal_dma.c ****     return HAL_ERROR;
 526:Drivers/STM32F1xx_HAL_Driver/Src/stm32f1xx_hal_dma.c ****   }
 527:Drivers/STM32F1xx_HAL_Driver/Src/stm32f1xx_hal_dma.c ****   
 528:Drivers/STM32F1xx_HAL_Driver/Src/stm32f1xx_hal_dma.c ****   /* Get the level transfer complete flag */
 529:Drivers/STM32F1xx_HAL_Driver/Src/stm32f1xx_hal_dma.c ****   if(CompleteLevel == HAL_DMA_FULL_TRANSFER)
 530:Drivers/STM32F1xx_HAL_Driver/Src/stm32f1xx_hal_dma.c ****   {
 531:Drivers/STM32F1xx_HAL_Driver/Src/stm32f1xx_hal_dma.c ****     /* Transfer Complete flag */
 532:Drivers/STM32F1xx_HAL_Driver/Src/stm32f1xx_hal_dma.c ****     temp = __HAL_DMA_GET_TC_FLAG_INDEX(hdma);
 533:Drivers/STM32F1xx_HAL_Driver/Src/stm32f1xx_hal_dma.c ****   }
 534:Drivers/STM32F1xx_HAL_Driver/Src/stm32f1xx_hal_dma.c ****   else
 535:Drivers/STM32F1xx_HAL_Driver/Src/stm32f1xx_hal_dma.c ****   {
 536:Drivers/STM32F1xx_HAL_Driver/Src/stm32f1xx_hal_dma.c ****     /* Half Transfer Complete flag */
 537:Drivers/STM32F1xx_HAL_Driver/Src/stm32f1xx_hal_dma.c ****     temp = __HAL_DMA_GET_HT_FLAG_INDEX(hdma);
 538:Drivers/STM32F1xx_HAL_Driver/Src/stm32f1xx_hal_dma.c ****   }
 539:Drivers/STM32F1xx_HAL_Driver/Src/stm32f1xx_hal_dma.c **** 
 540:Drivers/STM32F1xx_HAL_Driver/Src/stm32f1xx_hal_dma.c ****   /* Get tick */
 541:Drivers/STM32F1xx_HAL_Driver/Src/stm32f1xx_hal_dma.c ****   tickstart = HAL_GetTick();
 542:Drivers/STM32F1xx_HAL_Driver/Src/stm32f1xx_hal_dma.c **** 
 543:Drivers/STM32F1xx_HAL_Driver/Src/stm32f1xx_hal_dma.c ****   while(__HAL_DMA_GET_FLAG(hdma, temp) == RESET)
 544:Drivers/STM32F1xx_HAL_Driver/Src/stm32f1xx_hal_dma.c ****   {
 545:Drivers/STM32F1xx_HAL_Driver/Src/stm32f1xx_hal_dma.c ****     if((__HAL_DMA_GET_FLAG(hdma, __HAL_DMA_GET_TE_FLAG_INDEX(hdma)) != RESET))
 546:Drivers/STM32F1xx_HAL_Driver/Src/stm32f1xx_hal_dma.c ****     {
 547:Drivers/STM32F1xx_HAL_Driver/Src/stm32f1xx_hal_dma.c ****       /* When a DMA transfer error occurs */
ARM GAS  /tmp/cco4PWEh.s 			page 11


 548:Drivers/STM32F1xx_HAL_Driver/Src/stm32f1xx_hal_dma.c ****       /* A hardware clear of its EN bits is performed */
 549:Drivers/STM32F1xx_HAL_Driver/Src/stm32f1xx_hal_dma.c ****       /* Clear all flags */
 550:Drivers/STM32F1xx_HAL_Driver/Src/stm32f1xx_hal_dma.c ****       hdma->DmaBaseAddress->IFCR = (DMA_ISR_GIF1 << hdma->ChannelIndex);
 551:Drivers/STM32F1xx_HAL_Driver/Src/stm32f1xx_hal_dma.c **** 
 552:Drivers/STM32F1xx_HAL_Driver/Src/stm32f1xx_hal_dma.c ****       /* Update error code */
 553:Drivers/STM32F1xx_HAL_Driver/Src/stm32f1xx_hal_dma.c ****       SET_BIT(hdma->ErrorCode, HAL_DMA_ERROR_TE);
 554:Drivers/STM32F1xx_HAL_Driver/Src/stm32f1xx_hal_dma.c **** 
 555:Drivers/STM32F1xx_HAL_Driver/Src/stm32f1xx_hal_dma.c ****       /* Change the DMA state */
 556:Drivers/STM32F1xx_HAL_Driver/Src/stm32f1xx_hal_dma.c ****       hdma->State= HAL_DMA_STATE_READY;
 557:Drivers/STM32F1xx_HAL_Driver/Src/stm32f1xx_hal_dma.c **** 
 558:Drivers/STM32F1xx_HAL_Driver/Src/stm32f1xx_hal_dma.c ****       /* Process Unlocked */
 559:Drivers/STM32F1xx_HAL_Driver/Src/stm32f1xx_hal_dma.c ****       __HAL_UNLOCK(hdma);
 560:Drivers/STM32F1xx_HAL_Driver/Src/stm32f1xx_hal_dma.c **** 
 561:Drivers/STM32F1xx_HAL_Driver/Src/stm32f1xx_hal_dma.c ****       return HAL_ERROR;
 562:Drivers/STM32F1xx_HAL_Driver/Src/stm32f1xx_hal_dma.c ****     }
 563:Drivers/STM32F1xx_HAL_Driver/Src/stm32f1xx_hal_dma.c ****     /* Check for the Timeout */
 564:Drivers/STM32F1xx_HAL_Driver/Src/stm32f1xx_hal_dma.c ****     if(Timeout != HAL_MAX_DELAY)
 565:Drivers/STM32F1xx_HAL_Driver/Src/stm32f1xx_hal_dma.c ****     {
 566:Drivers/STM32F1xx_HAL_Driver/Src/stm32f1xx_hal_dma.c ****       if((Timeout == 0U) || ((HAL_GetTick() - tickstart) > Timeout))
 567:Drivers/STM32F1xx_HAL_Driver/Src/stm32f1xx_hal_dma.c ****       {
 568:Drivers/STM32F1xx_HAL_Driver/Src/stm32f1xx_hal_dma.c ****         /* Update error code */
 569:Drivers/STM32F1xx_HAL_Driver/Src/stm32f1xx_hal_dma.c ****         SET_BIT(hdma->ErrorCode, HAL_DMA_ERROR_TIMEOUT);
 570:Drivers/STM32F1xx_HAL_Driver/Src/stm32f1xx_hal_dma.c **** 
 571:Drivers/STM32F1xx_HAL_Driver/Src/stm32f1xx_hal_dma.c ****         /* Change the DMA state */
 572:Drivers/STM32F1xx_HAL_Driver/Src/stm32f1xx_hal_dma.c ****         hdma->State = HAL_DMA_STATE_READY;
 573:Drivers/STM32F1xx_HAL_Driver/Src/stm32f1xx_hal_dma.c **** 
 574:Drivers/STM32F1xx_HAL_Driver/Src/stm32f1xx_hal_dma.c ****         /* Process Unlocked */
 575:Drivers/STM32F1xx_HAL_Driver/Src/stm32f1xx_hal_dma.c ****         __HAL_UNLOCK(hdma);
 576:Drivers/STM32F1xx_HAL_Driver/Src/stm32f1xx_hal_dma.c **** 
 577:Drivers/STM32F1xx_HAL_Driver/Src/stm32f1xx_hal_dma.c ****         return HAL_ERROR;
 578:Drivers/STM32F1xx_HAL_Driver/Src/stm32f1xx_hal_dma.c ****       }
 579:Drivers/STM32F1xx_HAL_Driver/Src/stm32f1xx_hal_dma.c ****     }
 580:Drivers/STM32F1xx_HAL_Driver/Src/stm32f1xx_hal_dma.c ****   }
 581:Drivers/STM32F1xx_HAL_Driver/Src/stm32f1xx_hal_dma.c **** 
 582:Drivers/STM32F1xx_HAL_Driver/Src/stm32f1xx_hal_dma.c ****   if(CompleteLevel == HAL_DMA_FULL_TRANSFER)
 583:Drivers/STM32F1xx_HAL_Driver/Src/stm32f1xx_hal_dma.c ****   {
 584:Drivers/STM32F1xx_HAL_Driver/Src/stm32f1xx_hal_dma.c ****     /* Clear the transfer complete flag */
 585:Drivers/STM32F1xx_HAL_Driver/Src/stm32f1xx_hal_dma.c ****     __HAL_DMA_CLEAR_FLAG(hdma, __HAL_DMA_GET_TC_FLAG_INDEX(hdma));
 586:Drivers/STM32F1xx_HAL_Driver/Src/stm32f1xx_hal_dma.c **** 
 587:Drivers/STM32F1xx_HAL_Driver/Src/stm32f1xx_hal_dma.c ****     /* The selected Channelx EN bit is cleared (DMA is disabled and
 588:Drivers/STM32F1xx_HAL_Driver/Src/stm32f1xx_hal_dma.c ****     all transfers are complete) */
 589:Drivers/STM32F1xx_HAL_Driver/Src/stm32f1xx_hal_dma.c ****     hdma->State = HAL_DMA_STATE_READY;
 590:Drivers/STM32F1xx_HAL_Driver/Src/stm32f1xx_hal_dma.c ****   }
 591:Drivers/STM32F1xx_HAL_Driver/Src/stm32f1xx_hal_dma.c ****   else
 592:Drivers/STM32F1xx_HAL_Driver/Src/stm32f1xx_hal_dma.c ****   {
 593:Drivers/STM32F1xx_HAL_Driver/Src/stm32f1xx_hal_dma.c ****     /* Clear the half transfer complete flag */
 594:Drivers/STM32F1xx_HAL_Driver/Src/stm32f1xx_hal_dma.c ****     __HAL_DMA_CLEAR_FLAG(hdma, __HAL_DMA_GET_HT_FLAG_INDEX(hdma));
 595:Drivers/STM32F1xx_HAL_Driver/Src/stm32f1xx_hal_dma.c ****   }
 596:Drivers/STM32F1xx_HAL_Driver/Src/stm32f1xx_hal_dma.c ****   
 597:Drivers/STM32F1xx_HAL_Driver/Src/stm32f1xx_hal_dma.c ****   /* Process unlocked */
 598:Drivers/STM32F1xx_HAL_Driver/Src/stm32f1xx_hal_dma.c ****   __HAL_UNLOCK(hdma);
 599:Drivers/STM32F1xx_HAL_Driver/Src/stm32f1xx_hal_dma.c **** 
 600:Drivers/STM32F1xx_HAL_Driver/Src/stm32f1xx_hal_dma.c ****   return HAL_OK;
 601:Drivers/STM32F1xx_HAL_Driver/Src/stm32f1xx_hal_dma.c **** }
 602:Drivers/STM32F1xx_HAL_Driver/Src/stm32f1xx_hal_dma.c **** 
 603:Drivers/STM32F1xx_HAL_Driver/Src/stm32f1xx_hal_dma.c **** /**
 604:Drivers/STM32F1xx_HAL_Driver/Src/stm32f1xx_hal_dma.c ****   * @brief  Handles DMA interrupt request.
ARM GAS  /tmp/cco4PWEh.s 			page 12


 605:Drivers/STM32F1xx_HAL_Driver/Src/stm32f1xx_hal_dma.c ****   * @param  hdma: pointer to a DMA_HandleTypeDef structure that contains
 606:Drivers/STM32F1xx_HAL_Driver/Src/stm32f1xx_hal_dma.c ****   *               the configuration information for the specified DMA Channel.  
 607:Drivers/STM32F1xx_HAL_Driver/Src/stm32f1xx_hal_dma.c ****   * @retval None
 608:Drivers/STM32F1xx_HAL_Driver/Src/stm32f1xx_hal_dma.c ****   */
 609:Drivers/STM32F1xx_HAL_Driver/Src/stm32f1xx_hal_dma.c **** void HAL_DMA_IRQHandler(DMA_HandleTypeDef *hdma)
 610:Drivers/STM32F1xx_HAL_Driver/Src/stm32f1xx_hal_dma.c **** {
 611:Drivers/STM32F1xx_HAL_Driver/Src/stm32f1xx_hal_dma.c ****   uint32_t flag_it = hdma->DmaBaseAddress->ISR;
 612:Drivers/STM32F1xx_HAL_Driver/Src/stm32f1xx_hal_dma.c ****   uint32_t source_it = hdma->Instance->CCR;
 613:Drivers/STM32F1xx_HAL_Driver/Src/stm32f1xx_hal_dma.c ****   
 614:Drivers/STM32F1xx_HAL_Driver/Src/stm32f1xx_hal_dma.c ****   /* Half Transfer Complete Interrupt management ******************************/
 615:Drivers/STM32F1xx_HAL_Driver/Src/stm32f1xx_hal_dma.c ****   if (((flag_it & (DMA_FLAG_HT1 << hdma->ChannelIndex)) != RESET) && ((source_it & DMA_IT_HT) != RE
 616:Drivers/STM32F1xx_HAL_Driver/Src/stm32f1xx_hal_dma.c ****   {
 617:Drivers/STM32F1xx_HAL_Driver/Src/stm32f1xx_hal_dma.c ****     /* Disable the half transfer interrupt if the DMA mode is not CIRCULAR */
 618:Drivers/STM32F1xx_HAL_Driver/Src/stm32f1xx_hal_dma.c ****     if((hdma->Instance->CCR & DMA_CCR_CIRC) == 0U)
 619:Drivers/STM32F1xx_HAL_Driver/Src/stm32f1xx_hal_dma.c ****     {
 620:Drivers/STM32F1xx_HAL_Driver/Src/stm32f1xx_hal_dma.c ****       /* Disable the half transfer interrupt */
 621:Drivers/STM32F1xx_HAL_Driver/Src/stm32f1xx_hal_dma.c ****       __HAL_DMA_DISABLE_IT(hdma, DMA_IT_HT);
 622:Drivers/STM32F1xx_HAL_Driver/Src/stm32f1xx_hal_dma.c ****     }
 623:Drivers/STM32F1xx_HAL_Driver/Src/stm32f1xx_hal_dma.c ****     /* Clear the half transfer complete flag */
 624:Drivers/STM32F1xx_HAL_Driver/Src/stm32f1xx_hal_dma.c ****     __HAL_DMA_CLEAR_FLAG(hdma, __HAL_DMA_GET_HT_FLAG_INDEX(hdma));
 625:Drivers/STM32F1xx_HAL_Driver/Src/stm32f1xx_hal_dma.c **** 
 626:Drivers/STM32F1xx_HAL_Driver/Src/stm32f1xx_hal_dma.c ****     /* DMA peripheral state is not updated in Half Transfer */
 627:Drivers/STM32F1xx_HAL_Driver/Src/stm32f1xx_hal_dma.c ****     /* but in Transfer Complete case */
 628:Drivers/STM32F1xx_HAL_Driver/Src/stm32f1xx_hal_dma.c **** 
 629:Drivers/STM32F1xx_HAL_Driver/Src/stm32f1xx_hal_dma.c ****     if(hdma->XferHalfCpltCallback != NULL)
 630:Drivers/STM32F1xx_HAL_Driver/Src/stm32f1xx_hal_dma.c ****     {
 631:Drivers/STM32F1xx_HAL_Driver/Src/stm32f1xx_hal_dma.c ****       /* Half transfer callback */
 632:Drivers/STM32F1xx_HAL_Driver/Src/stm32f1xx_hal_dma.c ****       hdma->XferHalfCpltCallback(hdma);
 633:Drivers/STM32F1xx_HAL_Driver/Src/stm32f1xx_hal_dma.c ****     }
 634:Drivers/STM32F1xx_HAL_Driver/Src/stm32f1xx_hal_dma.c ****   }
 635:Drivers/STM32F1xx_HAL_Driver/Src/stm32f1xx_hal_dma.c **** 
 636:Drivers/STM32F1xx_HAL_Driver/Src/stm32f1xx_hal_dma.c ****   /* Transfer Complete Interrupt management ***********************************/
 637:Drivers/STM32F1xx_HAL_Driver/Src/stm32f1xx_hal_dma.c ****   else if (((flag_it & (DMA_FLAG_TC1 << hdma->ChannelIndex)) != RESET) && ((source_it & DMA_IT_TC) 
 638:Drivers/STM32F1xx_HAL_Driver/Src/stm32f1xx_hal_dma.c ****   {
 639:Drivers/STM32F1xx_HAL_Driver/Src/stm32f1xx_hal_dma.c ****     if((hdma->Instance->CCR & DMA_CCR_CIRC) == 0U)
 640:Drivers/STM32F1xx_HAL_Driver/Src/stm32f1xx_hal_dma.c ****     {
 641:Drivers/STM32F1xx_HAL_Driver/Src/stm32f1xx_hal_dma.c ****       /* Disable the transfer complete and error interrupt */
 642:Drivers/STM32F1xx_HAL_Driver/Src/stm32f1xx_hal_dma.c ****       __HAL_DMA_DISABLE_IT(hdma, DMA_IT_TE | DMA_IT_TC);  
 643:Drivers/STM32F1xx_HAL_Driver/Src/stm32f1xx_hal_dma.c **** 
 644:Drivers/STM32F1xx_HAL_Driver/Src/stm32f1xx_hal_dma.c ****       /* Change the DMA state */
 645:Drivers/STM32F1xx_HAL_Driver/Src/stm32f1xx_hal_dma.c ****       hdma->State = HAL_DMA_STATE_READY;
 646:Drivers/STM32F1xx_HAL_Driver/Src/stm32f1xx_hal_dma.c ****     }
 647:Drivers/STM32F1xx_HAL_Driver/Src/stm32f1xx_hal_dma.c ****     /* Clear the transfer complete flag */
 648:Drivers/STM32F1xx_HAL_Driver/Src/stm32f1xx_hal_dma.c ****       __HAL_DMA_CLEAR_FLAG(hdma, __HAL_DMA_GET_TC_FLAG_INDEX(hdma));
 649:Drivers/STM32F1xx_HAL_Driver/Src/stm32f1xx_hal_dma.c **** 
 650:Drivers/STM32F1xx_HAL_Driver/Src/stm32f1xx_hal_dma.c ****     /* Process Unlocked */
 651:Drivers/STM32F1xx_HAL_Driver/Src/stm32f1xx_hal_dma.c ****     __HAL_UNLOCK(hdma);
 652:Drivers/STM32F1xx_HAL_Driver/Src/stm32f1xx_hal_dma.c **** 
 653:Drivers/STM32F1xx_HAL_Driver/Src/stm32f1xx_hal_dma.c ****     if(hdma->XferCpltCallback != NULL)
 654:Drivers/STM32F1xx_HAL_Driver/Src/stm32f1xx_hal_dma.c ****     {
 655:Drivers/STM32F1xx_HAL_Driver/Src/stm32f1xx_hal_dma.c ****       /* Transfer complete callback */
 656:Drivers/STM32F1xx_HAL_Driver/Src/stm32f1xx_hal_dma.c ****       hdma->XferCpltCallback(hdma);
 657:Drivers/STM32F1xx_HAL_Driver/Src/stm32f1xx_hal_dma.c ****     }
 658:Drivers/STM32F1xx_HAL_Driver/Src/stm32f1xx_hal_dma.c ****   }
 659:Drivers/STM32F1xx_HAL_Driver/Src/stm32f1xx_hal_dma.c **** 
 660:Drivers/STM32F1xx_HAL_Driver/Src/stm32f1xx_hal_dma.c ****   /* Transfer Error Interrupt management **************************************/
 661:Drivers/STM32F1xx_HAL_Driver/Src/stm32f1xx_hal_dma.c ****   else if (( RESET != (flag_it & (DMA_FLAG_TE1 << hdma->ChannelIndex))) && (RESET != (source_it & D
ARM GAS  /tmp/cco4PWEh.s 			page 13


 662:Drivers/STM32F1xx_HAL_Driver/Src/stm32f1xx_hal_dma.c ****   {
 663:Drivers/STM32F1xx_HAL_Driver/Src/stm32f1xx_hal_dma.c ****     /* When a DMA transfer error occurs */
 664:Drivers/STM32F1xx_HAL_Driver/Src/stm32f1xx_hal_dma.c ****     /* A hardware clear of its EN bits is performed */
 665:Drivers/STM32F1xx_HAL_Driver/Src/stm32f1xx_hal_dma.c ****     /* Disable ALL DMA IT */
 666:Drivers/STM32F1xx_HAL_Driver/Src/stm32f1xx_hal_dma.c ****     __HAL_DMA_DISABLE_IT(hdma, (DMA_IT_TC | DMA_IT_HT | DMA_IT_TE));
 667:Drivers/STM32F1xx_HAL_Driver/Src/stm32f1xx_hal_dma.c **** 
 668:Drivers/STM32F1xx_HAL_Driver/Src/stm32f1xx_hal_dma.c ****     /* Clear all flags */
 669:Drivers/STM32F1xx_HAL_Driver/Src/stm32f1xx_hal_dma.c ****     hdma->DmaBaseAddress->IFCR = (DMA_ISR_GIF1 << hdma->ChannelIndex);
 670:Drivers/STM32F1xx_HAL_Driver/Src/stm32f1xx_hal_dma.c **** 
 671:Drivers/STM32F1xx_HAL_Driver/Src/stm32f1xx_hal_dma.c ****     /* Update error code */
 672:Drivers/STM32F1xx_HAL_Driver/Src/stm32f1xx_hal_dma.c ****     hdma->ErrorCode = HAL_DMA_ERROR_TE;
 673:Drivers/STM32F1xx_HAL_Driver/Src/stm32f1xx_hal_dma.c **** 
 674:Drivers/STM32F1xx_HAL_Driver/Src/stm32f1xx_hal_dma.c ****     /* Change the DMA state */
 675:Drivers/STM32F1xx_HAL_Driver/Src/stm32f1xx_hal_dma.c ****     hdma->State = HAL_DMA_STATE_READY;
 676:Drivers/STM32F1xx_HAL_Driver/Src/stm32f1xx_hal_dma.c **** 
 677:Drivers/STM32F1xx_HAL_Driver/Src/stm32f1xx_hal_dma.c ****     /* Process Unlocked */
 678:Drivers/STM32F1xx_HAL_Driver/Src/stm32f1xx_hal_dma.c ****     __HAL_UNLOCK(hdma);
 679:Drivers/STM32F1xx_HAL_Driver/Src/stm32f1xx_hal_dma.c **** 
 680:Drivers/STM32F1xx_HAL_Driver/Src/stm32f1xx_hal_dma.c ****     if (hdma->XferErrorCallback != NULL)
 681:Drivers/STM32F1xx_HAL_Driver/Src/stm32f1xx_hal_dma.c ****     {
 682:Drivers/STM32F1xx_HAL_Driver/Src/stm32f1xx_hal_dma.c ****       /* Transfer error callback */
 683:Drivers/STM32F1xx_HAL_Driver/Src/stm32f1xx_hal_dma.c ****       hdma->XferErrorCallback(hdma);
 684:Drivers/STM32F1xx_HAL_Driver/Src/stm32f1xx_hal_dma.c ****     }
 685:Drivers/STM32F1xx_HAL_Driver/Src/stm32f1xx_hal_dma.c ****   }
 686:Drivers/STM32F1xx_HAL_Driver/Src/stm32f1xx_hal_dma.c ****   return;
 687:Drivers/STM32F1xx_HAL_Driver/Src/stm32f1xx_hal_dma.c **** }
 688:Drivers/STM32F1xx_HAL_Driver/Src/stm32f1xx_hal_dma.c **** 
 689:Drivers/STM32F1xx_HAL_Driver/Src/stm32f1xx_hal_dma.c **** /**
 690:Drivers/STM32F1xx_HAL_Driver/Src/stm32f1xx_hal_dma.c ****   * @brief Register callbacks
 691:Drivers/STM32F1xx_HAL_Driver/Src/stm32f1xx_hal_dma.c ****   * @param hdma: pointer to a DMA_HandleTypeDef structure that contains
 692:Drivers/STM32F1xx_HAL_Driver/Src/stm32f1xx_hal_dma.c ****   *              the configuration information for the specified DMA Channel.
 693:Drivers/STM32F1xx_HAL_Driver/Src/stm32f1xx_hal_dma.c ****   * @param CallbackID: User Callback identifer
 694:Drivers/STM32F1xx_HAL_Driver/Src/stm32f1xx_hal_dma.c ****   *                    a HAL_DMA_CallbackIDTypeDef ENUM as parameter.
 695:Drivers/STM32F1xx_HAL_Driver/Src/stm32f1xx_hal_dma.c ****   * @param pCallback: pointer to private callbacsk function which has pointer to 
 696:Drivers/STM32F1xx_HAL_Driver/Src/stm32f1xx_hal_dma.c ****   *                   a DMA_HandleTypeDef structure as parameter.
 697:Drivers/STM32F1xx_HAL_Driver/Src/stm32f1xx_hal_dma.c ****   * @retval HAL status
 698:Drivers/STM32F1xx_HAL_Driver/Src/stm32f1xx_hal_dma.c ****   */                          
 699:Drivers/STM32F1xx_HAL_Driver/Src/stm32f1xx_hal_dma.c **** HAL_StatusTypeDef HAL_DMA_RegisterCallback(DMA_HandleTypeDef *hdma, HAL_DMA_CallbackIDTypeDef Callb
 700:Drivers/STM32F1xx_HAL_Driver/Src/stm32f1xx_hal_dma.c **** {
 701:Drivers/STM32F1xx_HAL_Driver/Src/stm32f1xx_hal_dma.c ****   HAL_StatusTypeDef status = HAL_OK;
 702:Drivers/STM32F1xx_HAL_Driver/Src/stm32f1xx_hal_dma.c ****   
 703:Drivers/STM32F1xx_HAL_Driver/Src/stm32f1xx_hal_dma.c ****   /* Process locked */
 704:Drivers/STM32F1xx_HAL_Driver/Src/stm32f1xx_hal_dma.c ****   __HAL_LOCK(hdma);
 705:Drivers/STM32F1xx_HAL_Driver/Src/stm32f1xx_hal_dma.c ****   
 706:Drivers/STM32F1xx_HAL_Driver/Src/stm32f1xx_hal_dma.c ****   if(HAL_DMA_STATE_READY == hdma->State)
 707:Drivers/STM32F1xx_HAL_Driver/Src/stm32f1xx_hal_dma.c ****   {
 708:Drivers/STM32F1xx_HAL_Driver/Src/stm32f1xx_hal_dma.c ****     switch (CallbackID)
 709:Drivers/STM32F1xx_HAL_Driver/Src/stm32f1xx_hal_dma.c ****     {
 710:Drivers/STM32F1xx_HAL_Driver/Src/stm32f1xx_hal_dma.c ****     case  HAL_DMA_XFER_CPLT_CB_ID:
 711:Drivers/STM32F1xx_HAL_Driver/Src/stm32f1xx_hal_dma.c ****       hdma->XferCpltCallback = pCallback;
 712:Drivers/STM32F1xx_HAL_Driver/Src/stm32f1xx_hal_dma.c ****       break;
 713:Drivers/STM32F1xx_HAL_Driver/Src/stm32f1xx_hal_dma.c ****       
 714:Drivers/STM32F1xx_HAL_Driver/Src/stm32f1xx_hal_dma.c ****     case  HAL_DMA_XFER_HALFCPLT_CB_ID:
 715:Drivers/STM32F1xx_HAL_Driver/Src/stm32f1xx_hal_dma.c ****       hdma->XferHalfCpltCallback = pCallback;
 716:Drivers/STM32F1xx_HAL_Driver/Src/stm32f1xx_hal_dma.c ****       break;         
 717:Drivers/STM32F1xx_HAL_Driver/Src/stm32f1xx_hal_dma.c **** 
 718:Drivers/STM32F1xx_HAL_Driver/Src/stm32f1xx_hal_dma.c ****     case  HAL_DMA_XFER_ERROR_CB_ID:
ARM GAS  /tmp/cco4PWEh.s 			page 14


 719:Drivers/STM32F1xx_HAL_Driver/Src/stm32f1xx_hal_dma.c ****       hdma->XferErrorCallback = pCallback;
 720:Drivers/STM32F1xx_HAL_Driver/Src/stm32f1xx_hal_dma.c ****       break;         
 721:Drivers/STM32F1xx_HAL_Driver/Src/stm32f1xx_hal_dma.c ****       
 722:Drivers/STM32F1xx_HAL_Driver/Src/stm32f1xx_hal_dma.c ****     case  HAL_DMA_XFER_ABORT_CB_ID:
 723:Drivers/STM32F1xx_HAL_Driver/Src/stm32f1xx_hal_dma.c ****       hdma->XferAbortCallback = pCallback;
 724:Drivers/STM32F1xx_HAL_Driver/Src/stm32f1xx_hal_dma.c ****       break; 
 725:Drivers/STM32F1xx_HAL_Driver/Src/stm32f1xx_hal_dma.c ****       
 726:Drivers/STM32F1xx_HAL_Driver/Src/stm32f1xx_hal_dma.c ****     default:
 727:Drivers/STM32F1xx_HAL_Driver/Src/stm32f1xx_hal_dma.c ****       status = HAL_ERROR;
 728:Drivers/STM32F1xx_HAL_Driver/Src/stm32f1xx_hal_dma.c ****       break;                                                            
 729:Drivers/STM32F1xx_HAL_Driver/Src/stm32f1xx_hal_dma.c ****     }
 730:Drivers/STM32F1xx_HAL_Driver/Src/stm32f1xx_hal_dma.c ****   }
 731:Drivers/STM32F1xx_HAL_Driver/Src/stm32f1xx_hal_dma.c ****   else
 732:Drivers/STM32F1xx_HAL_Driver/Src/stm32f1xx_hal_dma.c ****   {
 733:Drivers/STM32F1xx_HAL_Driver/Src/stm32f1xx_hal_dma.c ****     status = HAL_ERROR;
 734:Drivers/STM32F1xx_HAL_Driver/Src/stm32f1xx_hal_dma.c ****   } 
 735:Drivers/STM32F1xx_HAL_Driver/Src/stm32f1xx_hal_dma.c ****   
 736:Drivers/STM32F1xx_HAL_Driver/Src/stm32f1xx_hal_dma.c ****   /* Release Lock */
 737:Drivers/STM32F1xx_HAL_Driver/Src/stm32f1xx_hal_dma.c ****   __HAL_UNLOCK(hdma);
 738:Drivers/STM32F1xx_HAL_Driver/Src/stm32f1xx_hal_dma.c ****   
 739:Drivers/STM32F1xx_HAL_Driver/Src/stm32f1xx_hal_dma.c ****   return status;
 740:Drivers/STM32F1xx_HAL_Driver/Src/stm32f1xx_hal_dma.c **** }
 741:Drivers/STM32F1xx_HAL_Driver/Src/stm32f1xx_hal_dma.c **** 
 742:Drivers/STM32F1xx_HAL_Driver/Src/stm32f1xx_hal_dma.c **** /**
 743:Drivers/STM32F1xx_HAL_Driver/Src/stm32f1xx_hal_dma.c ****   * @brief UnRegister callbacks
 744:Drivers/STM32F1xx_HAL_Driver/Src/stm32f1xx_hal_dma.c ****   * @param hdma: pointer to a DMA_HandleTypeDef structure that contains
 745:Drivers/STM32F1xx_HAL_Driver/Src/stm32f1xx_hal_dma.c ****   *              the configuration information for the specified DMA Channel.
 746:Drivers/STM32F1xx_HAL_Driver/Src/stm32f1xx_hal_dma.c ****   * @param CallbackID: User Callback identifer
 747:Drivers/STM32F1xx_HAL_Driver/Src/stm32f1xx_hal_dma.c ****   *                    a HAL_DMA_CallbackIDTypeDef ENUM as parameter.
 748:Drivers/STM32F1xx_HAL_Driver/Src/stm32f1xx_hal_dma.c ****   * @retval HAL status
 749:Drivers/STM32F1xx_HAL_Driver/Src/stm32f1xx_hal_dma.c ****   */              
 750:Drivers/STM32F1xx_HAL_Driver/Src/stm32f1xx_hal_dma.c **** HAL_StatusTypeDef HAL_DMA_UnRegisterCallback(DMA_HandleTypeDef *hdma, HAL_DMA_CallbackIDTypeDef Cal
 751:Drivers/STM32F1xx_HAL_Driver/Src/stm32f1xx_hal_dma.c **** {
 752:Drivers/STM32F1xx_HAL_Driver/Src/stm32f1xx_hal_dma.c ****   HAL_StatusTypeDef status = HAL_OK;
 753:Drivers/STM32F1xx_HAL_Driver/Src/stm32f1xx_hal_dma.c **** 
 754:Drivers/STM32F1xx_HAL_Driver/Src/stm32f1xx_hal_dma.c ****   /* Process locked */
 755:Drivers/STM32F1xx_HAL_Driver/Src/stm32f1xx_hal_dma.c ****   __HAL_LOCK(hdma);
 756:Drivers/STM32F1xx_HAL_Driver/Src/stm32f1xx_hal_dma.c ****   
 757:Drivers/STM32F1xx_HAL_Driver/Src/stm32f1xx_hal_dma.c ****   if(HAL_DMA_STATE_READY == hdma->State)
 758:Drivers/STM32F1xx_HAL_Driver/Src/stm32f1xx_hal_dma.c ****   {
 759:Drivers/STM32F1xx_HAL_Driver/Src/stm32f1xx_hal_dma.c ****     switch (CallbackID)
 760:Drivers/STM32F1xx_HAL_Driver/Src/stm32f1xx_hal_dma.c ****     {
 761:Drivers/STM32F1xx_HAL_Driver/Src/stm32f1xx_hal_dma.c ****     case  HAL_DMA_XFER_CPLT_CB_ID:
 762:Drivers/STM32F1xx_HAL_Driver/Src/stm32f1xx_hal_dma.c ****       hdma->XferCpltCallback = NULL;
 763:Drivers/STM32F1xx_HAL_Driver/Src/stm32f1xx_hal_dma.c ****       break;
 764:Drivers/STM32F1xx_HAL_Driver/Src/stm32f1xx_hal_dma.c **** 
 765:Drivers/STM32F1xx_HAL_Driver/Src/stm32f1xx_hal_dma.c ****     case  HAL_DMA_XFER_HALFCPLT_CB_ID:
 766:Drivers/STM32F1xx_HAL_Driver/Src/stm32f1xx_hal_dma.c ****       hdma->XferHalfCpltCallback = NULL;
 767:Drivers/STM32F1xx_HAL_Driver/Src/stm32f1xx_hal_dma.c ****       break;         
 768:Drivers/STM32F1xx_HAL_Driver/Src/stm32f1xx_hal_dma.c **** 
 769:Drivers/STM32F1xx_HAL_Driver/Src/stm32f1xx_hal_dma.c ****     case  HAL_DMA_XFER_ERROR_CB_ID:
 770:Drivers/STM32F1xx_HAL_Driver/Src/stm32f1xx_hal_dma.c ****       hdma->XferErrorCallback = NULL;
 771:Drivers/STM32F1xx_HAL_Driver/Src/stm32f1xx_hal_dma.c ****       break;         
 772:Drivers/STM32F1xx_HAL_Driver/Src/stm32f1xx_hal_dma.c **** 
 773:Drivers/STM32F1xx_HAL_Driver/Src/stm32f1xx_hal_dma.c ****     case  HAL_DMA_XFER_ABORT_CB_ID:
 774:Drivers/STM32F1xx_HAL_Driver/Src/stm32f1xx_hal_dma.c ****       hdma->XferAbortCallback = NULL;
 775:Drivers/STM32F1xx_HAL_Driver/Src/stm32f1xx_hal_dma.c ****       break; 
ARM GAS  /tmp/cco4PWEh.s 			page 15


 776:Drivers/STM32F1xx_HAL_Driver/Src/stm32f1xx_hal_dma.c **** 
 777:Drivers/STM32F1xx_HAL_Driver/Src/stm32f1xx_hal_dma.c ****     case   HAL_DMA_XFER_ALL_CB_ID:
 778:Drivers/STM32F1xx_HAL_Driver/Src/stm32f1xx_hal_dma.c ****       hdma->XferCpltCallback = NULL;
 779:Drivers/STM32F1xx_HAL_Driver/Src/stm32f1xx_hal_dma.c ****       hdma->XferHalfCpltCallback = NULL;
 780:Drivers/STM32F1xx_HAL_Driver/Src/stm32f1xx_hal_dma.c ****       hdma->XferErrorCallback = NULL;
 781:Drivers/STM32F1xx_HAL_Driver/Src/stm32f1xx_hal_dma.c ****       hdma->XferAbortCallback = NULL;
 782:Drivers/STM32F1xx_HAL_Driver/Src/stm32f1xx_hal_dma.c ****       break; 
 783:Drivers/STM32F1xx_HAL_Driver/Src/stm32f1xx_hal_dma.c **** 
 784:Drivers/STM32F1xx_HAL_Driver/Src/stm32f1xx_hal_dma.c ****     default:
 785:Drivers/STM32F1xx_HAL_Driver/Src/stm32f1xx_hal_dma.c ****       status = HAL_ERROR;
 786:Drivers/STM32F1xx_HAL_Driver/Src/stm32f1xx_hal_dma.c ****       break;
 787:Drivers/STM32F1xx_HAL_Driver/Src/stm32f1xx_hal_dma.c ****     }
 788:Drivers/STM32F1xx_HAL_Driver/Src/stm32f1xx_hal_dma.c ****   }
 789:Drivers/STM32F1xx_HAL_Driver/Src/stm32f1xx_hal_dma.c ****   else
 790:Drivers/STM32F1xx_HAL_Driver/Src/stm32f1xx_hal_dma.c ****   {
 791:Drivers/STM32F1xx_HAL_Driver/Src/stm32f1xx_hal_dma.c ****     status = HAL_ERROR;
 792:Drivers/STM32F1xx_HAL_Driver/Src/stm32f1xx_hal_dma.c ****   } 
 793:Drivers/STM32F1xx_HAL_Driver/Src/stm32f1xx_hal_dma.c ****   
 794:Drivers/STM32F1xx_HAL_Driver/Src/stm32f1xx_hal_dma.c ****   /* Release Lock */
 795:Drivers/STM32F1xx_HAL_Driver/Src/stm32f1xx_hal_dma.c ****   __HAL_UNLOCK(hdma);
 796:Drivers/STM32F1xx_HAL_Driver/Src/stm32f1xx_hal_dma.c ****   
 797:Drivers/STM32F1xx_HAL_Driver/Src/stm32f1xx_hal_dma.c ****   return status;
 798:Drivers/STM32F1xx_HAL_Driver/Src/stm32f1xx_hal_dma.c **** }
 799:Drivers/STM32F1xx_HAL_Driver/Src/stm32f1xx_hal_dma.c ****   
 800:Drivers/STM32F1xx_HAL_Driver/Src/stm32f1xx_hal_dma.c **** /**
 801:Drivers/STM32F1xx_HAL_Driver/Src/stm32f1xx_hal_dma.c ****   * @}
 802:Drivers/STM32F1xx_HAL_Driver/Src/stm32f1xx_hal_dma.c ****   */
 803:Drivers/STM32F1xx_HAL_Driver/Src/stm32f1xx_hal_dma.c **** 
 804:Drivers/STM32F1xx_HAL_Driver/Src/stm32f1xx_hal_dma.c **** /** @defgroup DMA_Exported_Functions_Group3 Peripheral State and Errors functions
 805:Drivers/STM32F1xx_HAL_Driver/Src/stm32f1xx_hal_dma.c ****   *  @brief    Peripheral State and Errors functions
 806:Drivers/STM32F1xx_HAL_Driver/Src/stm32f1xx_hal_dma.c ****   *
 807:Drivers/STM32F1xx_HAL_Driver/Src/stm32f1xx_hal_dma.c **** @verbatim
 808:Drivers/STM32F1xx_HAL_Driver/Src/stm32f1xx_hal_dma.c ****  ===============================================================================
 809:Drivers/STM32F1xx_HAL_Driver/Src/stm32f1xx_hal_dma.c ****             ##### Peripheral State and Errors functions #####
 810:Drivers/STM32F1xx_HAL_Driver/Src/stm32f1xx_hal_dma.c ****  ===============================================================================  
 811:Drivers/STM32F1xx_HAL_Driver/Src/stm32f1xx_hal_dma.c ****     [..]
 812:Drivers/STM32F1xx_HAL_Driver/Src/stm32f1xx_hal_dma.c ****     This subsection provides functions allowing to
 813:Drivers/STM32F1xx_HAL_Driver/Src/stm32f1xx_hal_dma.c ****       (+) Check the DMA state
 814:Drivers/STM32F1xx_HAL_Driver/Src/stm32f1xx_hal_dma.c ****       (+) Get error code
 815:Drivers/STM32F1xx_HAL_Driver/Src/stm32f1xx_hal_dma.c **** 
 816:Drivers/STM32F1xx_HAL_Driver/Src/stm32f1xx_hal_dma.c **** @endverbatim
 817:Drivers/STM32F1xx_HAL_Driver/Src/stm32f1xx_hal_dma.c ****   * @{
 818:Drivers/STM32F1xx_HAL_Driver/Src/stm32f1xx_hal_dma.c ****   */
 819:Drivers/STM32F1xx_HAL_Driver/Src/stm32f1xx_hal_dma.c **** 
 820:Drivers/STM32F1xx_HAL_Driver/Src/stm32f1xx_hal_dma.c **** /**
 821:Drivers/STM32F1xx_HAL_Driver/Src/stm32f1xx_hal_dma.c ****   * @brief  Return the DMA hande state.
 822:Drivers/STM32F1xx_HAL_Driver/Src/stm32f1xx_hal_dma.c ****   * @param  hdma: pointer to a DMA_HandleTypeDef structure that contains
 823:Drivers/STM32F1xx_HAL_Driver/Src/stm32f1xx_hal_dma.c ****   *               the configuration information for the specified DMA Channel.
 824:Drivers/STM32F1xx_HAL_Driver/Src/stm32f1xx_hal_dma.c ****   * @retval HAL state
 825:Drivers/STM32F1xx_HAL_Driver/Src/stm32f1xx_hal_dma.c ****   */
 826:Drivers/STM32F1xx_HAL_Driver/Src/stm32f1xx_hal_dma.c **** HAL_DMA_StateTypeDef HAL_DMA_GetState(DMA_HandleTypeDef *hdma)
 827:Drivers/STM32F1xx_HAL_Driver/Src/stm32f1xx_hal_dma.c **** {
 828:Drivers/STM32F1xx_HAL_Driver/Src/stm32f1xx_hal_dma.c ****   /* Return DMA handle state */
 829:Drivers/STM32F1xx_HAL_Driver/Src/stm32f1xx_hal_dma.c ****   return hdma->State;
 830:Drivers/STM32F1xx_HAL_Driver/Src/stm32f1xx_hal_dma.c **** }
 831:Drivers/STM32F1xx_HAL_Driver/Src/stm32f1xx_hal_dma.c **** 
 832:Drivers/STM32F1xx_HAL_Driver/Src/stm32f1xx_hal_dma.c **** /**
ARM GAS  /tmp/cco4PWEh.s 			page 16


 833:Drivers/STM32F1xx_HAL_Driver/Src/stm32f1xx_hal_dma.c ****   * @brief  Return the DMA error code.
 834:Drivers/STM32F1xx_HAL_Driver/Src/stm32f1xx_hal_dma.c ****   * @param  hdma : pointer to a DMA_HandleTypeDef structure that contains
 835:Drivers/STM32F1xx_HAL_Driver/Src/stm32f1xx_hal_dma.c ****   *              the configuration information for the specified DMA Channel.
 836:Drivers/STM32F1xx_HAL_Driver/Src/stm32f1xx_hal_dma.c ****   * @retval DMA Error Code
 837:Drivers/STM32F1xx_HAL_Driver/Src/stm32f1xx_hal_dma.c ****   */
 838:Drivers/STM32F1xx_HAL_Driver/Src/stm32f1xx_hal_dma.c **** uint32_t HAL_DMA_GetError(DMA_HandleTypeDef *hdma)
 839:Drivers/STM32F1xx_HAL_Driver/Src/stm32f1xx_hal_dma.c **** {
 840:Drivers/STM32F1xx_HAL_Driver/Src/stm32f1xx_hal_dma.c ****   return hdma->ErrorCode;
 841:Drivers/STM32F1xx_HAL_Driver/Src/stm32f1xx_hal_dma.c **** }
 842:Drivers/STM32F1xx_HAL_Driver/Src/stm32f1xx_hal_dma.c **** 
 843:Drivers/STM32F1xx_HAL_Driver/Src/stm32f1xx_hal_dma.c **** /**
 844:Drivers/STM32F1xx_HAL_Driver/Src/stm32f1xx_hal_dma.c ****   * @}
 845:Drivers/STM32F1xx_HAL_Driver/Src/stm32f1xx_hal_dma.c ****   */
 846:Drivers/STM32F1xx_HAL_Driver/Src/stm32f1xx_hal_dma.c **** 
 847:Drivers/STM32F1xx_HAL_Driver/Src/stm32f1xx_hal_dma.c **** /**
 848:Drivers/STM32F1xx_HAL_Driver/Src/stm32f1xx_hal_dma.c ****   * @}
 849:Drivers/STM32F1xx_HAL_Driver/Src/stm32f1xx_hal_dma.c ****   */
 850:Drivers/STM32F1xx_HAL_Driver/Src/stm32f1xx_hal_dma.c **** 
 851:Drivers/STM32F1xx_HAL_Driver/Src/stm32f1xx_hal_dma.c **** /** @addtogroup DMA_Private_Functions
 852:Drivers/STM32F1xx_HAL_Driver/Src/stm32f1xx_hal_dma.c ****   * @{
 853:Drivers/STM32F1xx_HAL_Driver/Src/stm32f1xx_hal_dma.c ****   */
 854:Drivers/STM32F1xx_HAL_Driver/Src/stm32f1xx_hal_dma.c **** 
 855:Drivers/STM32F1xx_HAL_Driver/Src/stm32f1xx_hal_dma.c **** /**
 856:Drivers/STM32F1xx_HAL_Driver/Src/stm32f1xx_hal_dma.c ****   * @brief  Sets the DMA Transfer parameter.
 857:Drivers/STM32F1xx_HAL_Driver/Src/stm32f1xx_hal_dma.c ****   * @param  hdma:       pointer to a DMA_HandleTypeDef structure that contains
 858:Drivers/STM32F1xx_HAL_Driver/Src/stm32f1xx_hal_dma.c ****   *                     the configuration information for the specified DMA Channel.
 859:Drivers/STM32F1xx_HAL_Driver/Src/stm32f1xx_hal_dma.c ****   * @param  SrcAddress: The source memory Buffer address
 860:Drivers/STM32F1xx_HAL_Driver/Src/stm32f1xx_hal_dma.c ****   * @param  DstAddress: The destination memory Buffer address
 861:Drivers/STM32F1xx_HAL_Driver/Src/stm32f1xx_hal_dma.c ****   * @param  DataLength: The length of data to be transferred from source to destination
 862:Drivers/STM32F1xx_HAL_Driver/Src/stm32f1xx_hal_dma.c ****   * @retval HAL status
 863:Drivers/STM32F1xx_HAL_Driver/Src/stm32f1xx_hal_dma.c ****   */
 864:Drivers/STM32F1xx_HAL_Driver/Src/stm32f1xx_hal_dma.c **** static void DMA_SetConfig(DMA_HandleTypeDef *hdma, uint32_t SrcAddress, uint32_t DstAddress, uint32
 865:Drivers/STM32F1xx_HAL_Driver/Src/stm32f1xx_hal_dma.c **** {
  25              		.loc 1 865 0
  26              		.cfi_startproc
  27              		@ args = 0, pretend = 0, frame = 0
  28              		@ frame_needed = 0, uses_anonymous_args = 0
  29              		@ link register save eliminated.
  30              	.LVL0:
  31 0000 70B4     		push	{r4, r5, r6}
  32              	.LCFI0:
  33              		.cfi_def_cfa_offset 12
  34              		.cfi_offset 4, -12
  35              		.cfi_offset 5, -8
  36              		.cfi_offset 6, -4
 866:Drivers/STM32F1xx_HAL_Driver/Src/stm32f1xx_hal_dma.c ****   /* Clear all flags */
 867:Drivers/STM32F1xx_HAL_Driver/Src/stm32f1xx_hal_dma.c ****   hdma->DmaBaseAddress->IFCR = (DMA_ISR_GIF1 << hdma->ChannelIndex);
  37              		.loc 1 867 0
  38 0002 066C     		ldr	r6, [r0, #64]
  39 0004 C56B     		ldr	r5, [r0, #60]
  40 0006 0124     		movs	r4, #1
  41 0008 B440     		lsls	r4, r4, r6
  42 000a 6C60     		str	r4, [r5, #4]
 868:Drivers/STM32F1xx_HAL_Driver/Src/stm32f1xx_hal_dma.c **** 
 869:Drivers/STM32F1xx_HAL_Driver/Src/stm32f1xx_hal_dma.c ****   /* Configure DMA Channel data length */
 870:Drivers/STM32F1xx_HAL_Driver/Src/stm32f1xx_hal_dma.c ****   hdma->Instance->CNDTR = DataLength;
  43              		.loc 1 870 0
ARM GAS  /tmp/cco4PWEh.s 			page 17


  44 000c 0468     		ldr	r4, [r0]
  45 000e 6360     		str	r3, [r4, #4]
 871:Drivers/STM32F1xx_HAL_Driver/Src/stm32f1xx_hal_dma.c **** 
 872:Drivers/STM32F1xx_HAL_Driver/Src/stm32f1xx_hal_dma.c ****   /* Memory to Peripheral */
 873:Drivers/STM32F1xx_HAL_Driver/Src/stm32f1xx_hal_dma.c ****   if((hdma->Init.Direction) == DMA_MEMORY_TO_PERIPH)
  46              		.loc 1 873 0
  47 0010 4368     		ldr	r3, [r0, #4]
  48              	.LVL1:
  49 0012 102B     		cmp	r3, #16
  50 0014 05D0     		beq	.L5
 874:Drivers/STM32F1xx_HAL_Driver/Src/stm32f1xx_hal_dma.c ****   {
 875:Drivers/STM32F1xx_HAL_Driver/Src/stm32f1xx_hal_dma.c ****     /* Configure DMA Channel destination address */
 876:Drivers/STM32F1xx_HAL_Driver/Src/stm32f1xx_hal_dma.c ****     hdma->Instance->CPAR = DstAddress;
 877:Drivers/STM32F1xx_HAL_Driver/Src/stm32f1xx_hal_dma.c **** 
 878:Drivers/STM32F1xx_HAL_Driver/Src/stm32f1xx_hal_dma.c ****     /* Configure DMA Channel source address */
 879:Drivers/STM32F1xx_HAL_Driver/Src/stm32f1xx_hal_dma.c ****     hdma->Instance->CMAR = SrcAddress;
 880:Drivers/STM32F1xx_HAL_Driver/Src/stm32f1xx_hal_dma.c ****   }
 881:Drivers/STM32F1xx_HAL_Driver/Src/stm32f1xx_hal_dma.c ****   /* Peripheral to Memory */
 882:Drivers/STM32F1xx_HAL_Driver/Src/stm32f1xx_hal_dma.c ****   else
 883:Drivers/STM32F1xx_HAL_Driver/Src/stm32f1xx_hal_dma.c ****   {
 884:Drivers/STM32F1xx_HAL_Driver/Src/stm32f1xx_hal_dma.c ****     /* Configure DMA Channel source address */
 885:Drivers/STM32F1xx_HAL_Driver/Src/stm32f1xx_hal_dma.c ****     hdma->Instance->CPAR = SrcAddress;
  51              		.loc 1 885 0
  52 0016 0368     		ldr	r3, [r0]
  53 0018 9960     		str	r1, [r3, #8]
  54              	.LVL2:
 886:Drivers/STM32F1xx_HAL_Driver/Src/stm32f1xx_hal_dma.c **** 
 887:Drivers/STM32F1xx_HAL_Driver/Src/stm32f1xx_hal_dma.c ****     /* Configure DMA Channel destination address */
 888:Drivers/STM32F1xx_HAL_Driver/Src/stm32f1xx_hal_dma.c ****     hdma->Instance->CMAR = DstAddress;
  55              		.loc 1 888 0
  56 001a 0368     		ldr	r3, [r0]
  57 001c DA60     		str	r2, [r3, #12]
  58              	.L1:
 889:Drivers/STM32F1xx_HAL_Driver/Src/stm32f1xx_hal_dma.c ****   }
 890:Drivers/STM32F1xx_HAL_Driver/Src/stm32f1xx_hal_dma.c **** }
  59              		.loc 1 890 0
  60 001e 70BC     		pop	{r4, r5, r6}
  61              	.LCFI1:
  62              		.cfi_remember_state
  63              		.cfi_restore 6
  64              		.cfi_restore 5
  65              		.cfi_restore 4
  66              		.cfi_def_cfa_offset 0
  67 0020 7047     		bx	lr
  68              	.LVL3:
  69              	.L5:
  70              	.LCFI2:
  71              		.cfi_restore_state
 876:Drivers/STM32F1xx_HAL_Driver/Src/stm32f1xx_hal_dma.c **** 
  72              		.loc 1 876 0
  73 0022 0368     		ldr	r3, [r0]
  74 0024 9A60     		str	r2, [r3, #8]
  75              	.LVL4:
 879:Drivers/STM32F1xx_HAL_Driver/Src/stm32f1xx_hal_dma.c ****   }
  76              		.loc 1 879 0
  77 0026 0368     		ldr	r3, [r0]
  78 0028 D960     		str	r1, [r3, #12]
ARM GAS  /tmp/cco4PWEh.s 			page 18


  79 002a F8E7     		b	.L1
  80              		.cfi_endproc
  81              	.LFE78:
  83              		.section	.text.HAL_DMA_Init,"ax",%progbits
  84              		.align	1
  85              		.global	HAL_DMA_Init
  86              		.syntax unified
  87              		.thumb
  88              		.thumb_func
  89              		.fpu softvfp
  91              	HAL_DMA_Init:
  92              	.LFB66:
 162:Drivers/STM32F1xx_HAL_Driver/Src/stm32f1xx_hal_dma.c ****   uint32_t tmp = 0U;
  93              		.loc 1 162 0
  94              		.cfi_startproc
  95              		@ args = 0, pretend = 0, frame = 0
  96              		@ frame_needed = 0, uses_anonymous_args = 0
  97              		@ link register save eliminated.
  98              	.LVL5:
 166:Drivers/STM32F1xx_HAL_Driver/Src/stm32f1xx_hal_dma.c ****   {
  99              		.loc 1 166 0
 100 0000 0028     		cmp	r0, #0
 101 0002 3FD0     		beq	.L10
 162:Drivers/STM32F1xx_HAL_Driver/Src/stm32f1xx_hal_dma.c ****   uint32_t tmp = 0U;
 102              		.loc 1 162 0
 103 0004 10B4     		push	{r4}
 104              	.LCFI3:
 105              		.cfi_def_cfa_offset 4
 106              		.cfi_offset 4, -4
 107 0006 0346     		mov	r3, r0
 183:Drivers/STM32F1xx_HAL_Driver/Src/stm32f1xx_hal_dma.c ****   {
 108              		.loc 1 183 0
 109 0008 0168     		ldr	r1, [r0]
 110 000a 1F4A     		ldr	r2, .L15
 111 000c 9142     		cmp	r1, r2
 112 000e 2ED8     		bhi	.L8
 186:Drivers/STM32F1xx_HAL_Driver/Src/stm32f1xx_hal_dma.c ****     hdma->DmaBaseAddress = DMA1;
 113              		.loc 1 186 0
 114 0010 1E4A     		ldr	r2, .L15+4
 115 0012 0A44     		add	r2, r2, r1
 116 0014 1E49     		ldr	r1, .L15+8
 117 0016 A1FB0212 		umull	r1, r2, r1, r2
 118 001a 1209     		lsrs	r2, r2, #4
 119 001c 9200     		lsls	r2, r2, #2
 120 001e 0264     		str	r2, [r0, #64]
 187:Drivers/STM32F1xx_HAL_Driver/Src/stm32f1xx_hal_dma.c ****   }
 121              		.loc 1 187 0
 122 0020 1C4A     		ldr	r2, .L15+12
 123 0022 C263     		str	r2, [r0, #60]
 124              	.L9:
 202:Drivers/STM32F1xx_HAL_Driver/Src/stm32f1xx_hal_dma.c **** 
 125              		.loc 1 202 0
 126 0024 0222     		movs	r2, #2
 127 0026 83F82120 		strb	r2, [r3, #33]
 205:Drivers/STM32F1xx_HAL_Driver/Src/stm32f1xx_hal_dma.c **** 
 128              		.loc 1 205 0
 129 002a 1868     		ldr	r0, [r3]
ARM GAS  /tmp/cco4PWEh.s 			page 19


 130              	.LVL6:
 131 002c 0168     		ldr	r1, [r0]
 132              	.LVL7:
 208:Drivers/STM32F1xx_HAL_Driver/Src/stm32f1xx_hal_dma.c ****                       DMA_CCR_MINC  | DMA_CCR_PINC   | DMA_CCR_CIRC   | \
 133              		.loc 1 208 0
 134 002e 21F47F51 		bic	r1, r1, #16320
 135              	.LVL8:
 136 0032 21F03001 		bic	r1, r1, #48
 137              	.LVL9:
 213:Drivers/STM32F1xx_HAL_Driver/Src/stm32f1xx_hal_dma.c ****           hdma->Init.PeriphInc           | hdma->Init.MemInc           |
 138              		.loc 1 213 0
 139 0036 5A68     		ldr	r2, [r3, #4]
 214:Drivers/STM32F1xx_HAL_Driver/Src/stm32f1xx_hal_dma.c ****           hdma->Init.PeriphDataAlignment | hdma->Init.MemDataAlignment |
 140              		.loc 1 214 0
 141 0038 9C68     		ldr	r4, [r3, #8]
 213:Drivers/STM32F1xx_HAL_Driver/Src/stm32f1xx_hal_dma.c ****           hdma->Init.PeriphInc           | hdma->Init.MemInc           |
 142              		.loc 1 213 0
 143 003a 2243     		orrs	r2, r2, r4
 214:Drivers/STM32F1xx_HAL_Driver/Src/stm32f1xx_hal_dma.c ****           hdma->Init.PeriphDataAlignment | hdma->Init.MemDataAlignment |
 144              		.loc 1 214 0
 145 003c DC68     		ldr	r4, [r3, #12]
 146 003e 2243     		orrs	r2, r2, r4
 215:Drivers/STM32F1xx_HAL_Driver/Src/stm32f1xx_hal_dma.c ****           hdma->Init.Mode                | hdma->Init.Priority;
 147              		.loc 1 215 0
 148 0040 1C69     		ldr	r4, [r3, #16]
 214:Drivers/STM32F1xx_HAL_Driver/Src/stm32f1xx_hal_dma.c ****           hdma->Init.PeriphDataAlignment | hdma->Init.MemDataAlignment |
 149              		.loc 1 214 0
 150 0042 2243     		orrs	r2, r2, r4
 215:Drivers/STM32F1xx_HAL_Driver/Src/stm32f1xx_hal_dma.c ****           hdma->Init.Mode                | hdma->Init.Priority;
 151              		.loc 1 215 0
 152 0044 5C69     		ldr	r4, [r3, #20]
 153 0046 2243     		orrs	r2, r2, r4
 216:Drivers/STM32F1xx_HAL_Driver/Src/stm32f1xx_hal_dma.c **** 
 154              		.loc 1 216 0
 155 0048 9C69     		ldr	r4, [r3, #24]
 215:Drivers/STM32F1xx_HAL_Driver/Src/stm32f1xx_hal_dma.c ****           hdma->Init.Mode                | hdma->Init.Priority;
 156              		.loc 1 215 0
 157 004a 2243     		orrs	r2, r2, r4
 216:Drivers/STM32F1xx_HAL_Driver/Src/stm32f1xx_hal_dma.c **** 
 158              		.loc 1 216 0
 159 004c DC69     		ldr	r4, [r3, #28]
 160 004e 2243     		orrs	r2, r2, r4
 213:Drivers/STM32F1xx_HAL_Driver/Src/stm32f1xx_hal_dma.c ****           hdma->Init.PeriphInc           | hdma->Init.MemInc           |
 161              		.loc 1 213 0
 162 0050 0A43     		orrs	r2, r2, r1
 163              	.LVL10:
 219:Drivers/STM32F1xx_HAL_Driver/Src/stm32f1xx_hal_dma.c **** 
 164              		.loc 1 219 0
 165 0052 0260     		str	r2, [r0]
 223:Drivers/STM32F1xx_HAL_Driver/Src/stm32f1xx_hal_dma.c ****   hdma->XferHalfCpltCallback = NULL;
 166              		.loc 1 223 0
 167 0054 0020     		movs	r0, #0
 168 0056 9862     		str	r0, [r3, #40]
 224:Drivers/STM32F1xx_HAL_Driver/Src/stm32f1xx_hal_dma.c ****   hdma->XferErrorCallback = NULL;
 169              		.loc 1 224 0
 170 0058 D862     		str	r0, [r3, #44]
 225:Drivers/STM32F1xx_HAL_Driver/Src/stm32f1xx_hal_dma.c ****   hdma->XferAbortCallback = NULL;
ARM GAS  /tmp/cco4PWEh.s 			page 20


 171              		.loc 1 225 0
 172 005a 1863     		str	r0, [r3, #48]
 226:Drivers/STM32F1xx_HAL_Driver/Src/stm32f1xx_hal_dma.c **** 
 173              		.loc 1 226 0
 174 005c 5863     		str	r0, [r3, #52]
 229:Drivers/STM32F1xx_HAL_Driver/Src/stm32f1xx_hal_dma.c **** 
 175              		.loc 1 229 0
 176 005e 9863     		str	r0, [r3, #56]
 232:Drivers/STM32F1xx_HAL_Driver/Src/stm32f1xx_hal_dma.c ****   /* Allocate lock resource and initialize it */
 177              		.loc 1 232 0
 178 0060 0122     		movs	r2, #1
 179              	.LVL11:
 180 0062 83F82120 		strb	r2, [r3, #33]
 234:Drivers/STM32F1xx_HAL_Driver/Src/stm32f1xx_hal_dma.c ****   
 181              		.loc 1 234 0
 182 0066 83F82000 		strb	r0, [r3, #32]
 237:Drivers/STM32F1xx_HAL_Driver/Src/stm32f1xx_hal_dma.c **** 
 183              		.loc 1 237 0
 184 006a 10BC     		pop	{r4}
 185              	.LCFI4:
 186              		.cfi_remember_state
 187              		.cfi_restore 4
 188              		.cfi_def_cfa_offset 0
 189 006c 7047     		bx	lr
 190              	.LVL12:
 191              	.L8:
 192              	.LCFI5:
 193              		.cfi_restore_state
 192:Drivers/STM32F1xx_HAL_Driver/Src/stm32f1xx_hal_dma.c ****     hdma->DmaBaseAddress = DMA2;
 194              		.loc 1 192 0
 195 006e 0A4A     		ldr	r2, .L15+16
 196 0070 0A44     		add	r2, r2, r1
 197 0072 0749     		ldr	r1, .L15+8
 198 0074 A1FB0212 		umull	r1, r2, r1, r2
 199 0078 1209     		lsrs	r2, r2, #4
 200 007a 9200     		lsls	r2, r2, #2
 201 007c 0264     		str	r2, [r0, #64]
 193:Drivers/STM32F1xx_HAL_Driver/Src/stm32f1xx_hal_dma.c ****   }
 202              		.loc 1 193 0
 203 007e 074A     		ldr	r2, .L15+20
 204 0080 C263     		str	r2, [r0, #60]
 205 0082 CFE7     		b	.L9
 206              	.L10:
 207              	.LCFI6:
 208              		.cfi_def_cfa_offset 0
 209              		.cfi_restore 4
 168:Drivers/STM32F1xx_HAL_Driver/Src/stm32f1xx_hal_dma.c ****   }
 210              		.loc 1 168 0
 211 0084 0120     		movs	r0, #1
 212              	.LVL13:
 237:Drivers/STM32F1xx_HAL_Driver/Src/stm32f1xx_hal_dma.c **** 
 213              		.loc 1 237 0
 214 0086 7047     		bx	lr
 215              	.L16:
 216              		.align	2
 217              	.L15:
 218 0088 07040240 		.word	1073873927
ARM GAS  /tmp/cco4PWEh.s 			page 21


 219 008c F8FFFDBF 		.word	-1073872904
 220 0090 CDCCCCCC 		.word	-858993459
 221 0094 00000240 		.word	1073872896
 222 0098 F8FBFDBF 		.word	-1073873928
 223 009c 00040240 		.word	1073873920
 224              		.cfi_endproc
 225              	.LFE66:
 227              		.section	.text.HAL_DMA_DeInit,"ax",%progbits
 228              		.align	1
 229              		.global	HAL_DMA_DeInit
 230              		.syntax unified
 231              		.thumb
 232              		.thumb_func
 233              		.fpu softvfp
 235              	HAL_DMA_DeInit:
 236              	.LFB67:
 246:Drivers/STM32F1xx_HAL_Driver/Src/stm32f1xx_hal_dma.c ****   /* Check the DMA handle allocation */
 237              		.loc 1 246 0
 238              		.cfi_startproc
 239              		@ args = 0, pretend = 0, frame = 0
 240              		@ frame_needed = 0, uses_anonymous_args = 0
 241              		@ link register save eliminated.
 242              	.LVL14:
 248:Drivers/STM32F1xx_HAL_Driver/Src/stm32f1xx_hal_dma.c ****   {
 243              		.loc 1 248 0
 244 0000 0346     		mov	r3, r0
 245 0002 0028     		cmp	r0, #0
 246 0004 32D0     		beq	.L21
 257:Drivers/STM32F1xx_HAL_Driver/Src/stm32f1xx_hal_dma.c **** 
 247              		.loc 1 257 0
 248 0006 0168     		ldr	r1, [r0]
 249 0008 0A68     		ldr	r2, [r1]
 250 000a 22F00102 		bic	r2, r2, #1
 251 000e 0A60     		str	r2, [r1]
 260:Drivers/STM32F1xx_HAL_Driver/Src/stm32f1xx_hal_dma.c **** 
 252              		.loc 1 260 0
 253 0010 0168     		ldr	r1, [r0]
 254 0012 0022     		movs	r2, #0
 255 0014 0A60     		str	r2, [r1]
 263:Drivers/STM32F1xx_HAL_Driver/Src/stm32f1xx_hal_dma.c **** 
 256              		.loc 1 263 0
 257 0016 0168     		ldr	r1, [r0]
 258 0018 4A60     		str	r2, [r1, #4]
 266:Drivers/STM32F1xx_HAL_Driver/Src/stm32f1xx_hal_dma.c **** 
 259              		.loc 1 266 0
 260 001a 0168     		ldr	r1, [r0]
 261 001c 8A60     		str	r2, [r1, #8]
 269:Drivers/STM32F1xx_HAL_Driver/Src/stm32f1xx_hal_dma.c **** 
 262              		.loc 1 269 0
 263 001e 0168     		ldr	r1, [r0]
 264 0020 CA60     		str	r2, [r1, #12]
 273:Drivers/STM32F1xx_HAL_Driver/Src/stm32f1xx_hal_dma.c ****   {
 265              		.loc 1 273 0
 266 0022 0168     		ldr	r1, [r0]
 267 0024 124A     		ldr	r2, .L22
 268 0026 9142     		cmp	r1, r2
 269 0028 15D8     		bhi	.L19
ARM GAS  /tmp/cco4PWEh.s 			page 22


 276:Drivers/STM32F1xx_HAL_Driver/Src/stm32f1xx_hal_dma.c ****     hdma->DmaBaseAddress = DMA1;
 270              		.loc 1 276 0
 271 002a 124A     		ldr	r2, .L22+4
 272 002c 0A44     		add	r2, r2, r1
 273 002e 1249     		ldr	r1, .L22+8
 274 0030 A1FB0212 		umull	r1, r2, r1, r2
 275 0034 1209     		lsrs	r2, r2, #4
 276 0036 9200     		lsls	r2, r2, #2
 277 0038 0264     		str	r2, [r0, #64]
 277:Drivers/STM32F1xx_HAL_Driver/Src/stm32f1xx_hal_dma.c ****   }
 278              		.loc 1 277 0
 279 003a 104A     		ldr	r2, .L22+12
 280 003c C263     		str	r2, [r0, #60]
 281              	.L20:
 292:Drivers/STM32F1xx_HAL_Driver/Src/stm32f1xx_hal_dma.c **** 
 282              		.loc 1 292 0
 283 003e 186C     		ldr	r0, [r3, #64]
 284              	.LVL15:
 285 0040 D96B     		ldr	r1, [r3, #60]
 286 0042 0122     		movs	r2, #1
 287 0044 8240     		lsls	r2, r2, r0
 288 0046 4A60     		str	r2, [r1, #4]
 295:Drivers/STM32F1xx_HAL_Driver/Src/stm32f1xx_hal_dma.c **** 
 289              		.loc 1 295 0
 290 0048 0020     		movs	r0, #0
 291 004a 9863     		str	r0, [r3, #56]
 298:Drivers/STM32F1xx_HAL_Driver/Src/stm32f1xx_hal_dma.c **** 
 292              		.loc 1 298 0
 293 004c 83F82100 		strb	r0, [r3, #33]
 301:Drivers/STM32F1xx_HAL_Driver/Src/stm32f1xx_hal_dma.c **** 
 294              		.loc 1 301 0
 295 0050 83F82000 		strb	r0, [r3, #32]
 303:Drivers/STM32F1xx_HAL_Driver/Src/stm32f1xx_hal_dma.c **** }
 296              		.loc 1 303 0
 297 0054 7047     		bx	lr
 298              	.LVL16:
 299              	.L19:
 282:Drivers/STM32F1xx_HAL_Driver/Src/stm32f1xx_hal_dma.c ****     hdma->DmaBaseAddress = DMA2;
 300              		.loc 1 282 0
 301 0056 0A4A     		ldr	r2, .L22+16
 302 0058 0A44     		add	r2, r2, r1
 303 005a 0749     		ldr	r1, .L22+8
 304 005c A1FB0212 		umull	r1, r2, r1, r2
 305 0060 1209     		lsrs	r2, r2, #4
 306 0062 9200     		lsls	r2, r2, #2
 307 0064 0264     		str	r2, [r0, #64]
 283:Drivers/STM32F1xx_HAL_Driver/Src/stm32f1xx_hal_dma.c ****   }
 308              		.loc 1 283 0
 309 0066 074A     		ldr	r2, .L22+20
 310 0068 C263     		str	r2, [r0, #60]
 311 006a E8E7     		b	.L20
 312              	.L21:
 250:Drivers/STM32F1xx_HAL_Driver/Src/stm32f1xx_hal_dma.c ****   }
 313              		.loc 1 250 0
 314 006c 0120     		movs	r0, #1
 315              	.LVL17:
 304:Drivers/STM32F1xx_HAL_Driver/Src/stm32f1xx_hal_dma.c **** 
ARM GAS  /tmp/cco4PWEh.s 			page 23


 316              		.loc 1 304 0
 317 006e 7047     		bx	lr
 318              	.L23:
 319              		.align	2
 320              	.L22:
 321 0070 07040240 		.word	1073873927
 322 0074 F8FFFDBF 		.word	-1073872904
 323 0078 CDCCCCCC 		.word	-858993459
 324 007c 00000240 		.word	1073872896
 325 0080 F8FBFDBF 		.word	-1073873928
 326 0084 00040240 		.word	1073873920
 327              		.cfi_endproc
 328              	.LFE67:
 330              		.section	.text.HAL_DMA_Start,"ax",%progbits
 331              		.align	1
 332              		.global	HAL_DMA_Start
 333              		.syntax unified
 334              		.thumb
 335              		.thumb_func
 336              		.fpu softvfp
 338              	HAL_DMA_Start:
 339              	.LFB68:
 339:Drivers/STM32F1xx_HAL_Driver/Src/stm32f1xx_hal_dma.c ****   HAL_StatusTypeDef status = HAL_OK;
 340              		.loc 1 339 0
 341              		.cfi_startproc
 342              		@ args = 0, pretend = 0, frame = 0
 343              		@ frame_needed = 0, uses_anonymous_args = 0
 344              	.LVL18:
 345 0000 70B5     		push	{r4, r5, r6, lr}
 346              	.LCFI7:
 347              		.cfi_def_cfa_offset 16
 348              		.cfi_offset 4, -16
 349              		.cfi_offset 5, -12
 350              		.cfi_offset 6, -8
 351              		.cfi_offset 14, -4
 352              	.LVL19:
 346:Drivers/STM32F1xx_HAL_Driver/Src/stm32f1xx_hal_dma.c **** 
 353              		.loc 1 346 0
 354 0002 90F82040 		ldrb	r4, [r0, #32]	@ zero_extendqisi2
 355 0006 012C     		cmp	r4, #1
 356 0008 20D0     		beq	.L27
 346:Drivers/STM32F1xx_HAL_Driver/Src/stm32f1xx_hal_dma.c **** 
 357              		.loc 1 346 0 is_stmt 0 discriminator 2
 358 000a 0124     		movs	r4, #1
 359 000c 80F82040 		strb	r4, [r0, #32]
 348:Drivers/STM32F1xx_HAL_Driver/Src/stm32f1xx_hal_dma.c ****   {
 360              		.loc 1 348 0 is_stmt 1 discriminator 2
 361 0010 90F82140 		ldrb	r4, [r0, #33]	@ zero_extendqisi2
 362 0014 012C     		cmp	r4, #1
 363 0016 04D0     		beq	.L29
 366:Drivers/STM32F1xx_HAL_Driver/Src/stm32f1xx_hal_dma.c ****    status = HAL_BUSY;
 364              		.loc 1 366 0
 365 0018 0023     		movs	r3, #0
 366              	.LVL20:
 367 001a 80F82030 		strb	r3, [r0, #32]
 368              	.LVL21:
 367:Drivers/STM32F1xx_HAL_Driver/Src/stm32f1xx_hal_dma.c ****   }  
ARM GAS  /tmp/cco4PWEh.s 			page 24


 369              		.loc 1 367 0
 370 001e 0220     		movs	r0, #2
 371              	.LVL22:
 372              	.L25:
 370:Drivers/STM32F1xx_HAL_Driver/Src/stm32f1xx_hal_dma.c **** 
 373              		.loc 1 370 0
 374 0020 70BD     		pop	{r4, r5, r6, pc}
 375              	.LVL23:
 376              	.L29:
 377 0022 0446     		mov	r4, r0
 351:Drivers/STM32F1xx_HAL_Driver/Src/stm32f1xx_hal_dma.c ****     hdma->ErrorCode = HAL_DMA_ERROR_NONE;
 378              		.loc 1 351 0
 379 0024 0220     		movs	r0, #2
 380              	.LVL24:
 381 0026 84F82100 		strb	r0, [r4, #33]
 352:Drivers/STM32F1xx_HAL_Driver/Src/stm32f1xx_hal_dma.c ****             
 382              		.loc 1 352 0
 383 002a 0025     		movs	r5, #0
 384 002c A563     		str	r5, [r4, #56]
 355:Drivers/STM32F1xx_HAL_Driver/Src/stm32f1xx_hal_dma.c ****     
 385              		.loc 1 355 0
 386 002e 2668     		ldr	r6, [r4]
 387 0030 3068     		ldr	r0, [r6]
 388 0032 20F00100 		bic	r0, r0, #1
 389 0036 3060     		str	r0, [r6]
 358:Drivers/STM32F1xx_HAL_Driver/Src/stm32f1xx_hal_dma.c ****     
 390              		.loc 1 358 0
 391 0038 2046     		mov	r0, r4
 392 003a FFF7FEFF 		bl	DMA_SetConfig
 393              	.LVL25:
 361:Drivers/STM32F1xx_HAL_Driver/Src/stm32f1xx_hal_dma.c ****   }
 394              		.loc 1 361 0
 395 003e 2268     		ldr	r2, [r4]
 396 0040 1368     		ldr	r3, [r2]
 397 0042 43F00103 		orr	r3, r3, #1
 398 0046 1360     		str	r3, [r2]
 340:Drivers/STM32F1xx_HAL_Driver/Src/stm32f1xx_hal_dma.c **** 
 399              		.loc 1 340 0
 400 0048 2846     		mov	r0, r5
 401 004a E9E7     		b	.L25
 402              	.LVL26:
 403              	.L27:
 346:Drivers/STM32F1xx_HAL_Driver/Src/stm32f1xx_hal_dma.c **** 
 404              		.loc 1 346 0
 405 004c 0220     		movs	r0, #2
 406              	.LVL27:
 407 004e E7E7     		b	.L25
 408              		.cfi_endproc
 409              	.LFE68:
 411              		.section	.text.HAL_DMA_Start_IT,"ax",%progbits
 412              		.align	1
 413              		.global	HAL_DMA_Start_IT
 414              		.syntax unified
 415              		.thumb
 416              		.thumb_func
 417              		.fpu softvfp
 419              	HAL_DMA_Start_IT:
ARM GAS  /tmp/cco4PWEh.s 			page 25


 420              	.LFB69:
 382:Drivers/STM32F1xx_HAL_Driver/Src/stm32f1xx_hal_dma.c ****   HAL_StatusTypeDef status = HAL_OK;
 421              		.loc 1 382 0
 422              		.cfi_startproc
 423              		@ args = 0, pretend = 0, frame = 0
 424              		@ frame_needed = 0, uses_anonymous_args = 0
 425              	.LVL28:
 426 0000 38B5     		push	{r3, r4, r5, lr}
 427              	.LCFI8:
 428              		.cfi_def_cfa_offset 16
 429              		.cfi_offset 3, -16
 430              		.cfi_offset 4, -12
 431              		.cfi_offset 5, -8
 432              		.cfi_offset 14, -4
 433              	.LVL29:
 389:Drivers/STM32F1xx_HAL_Driver/Src/stm32f1xx_hal_dma.c ****   
 434              		.loc 1 389 0
 435 0002 90F82040 		ldrb	r4, [r0, #32]	@ zero_extendqisi2
 436 0006 012C     		cmp	r4, #1
 437 0008 32D0     		beq	.L35
 389:Drivers/STM32F1xx_HAL_Driver/Src/stm32f1xx_hal_dma.c ****   
 438              		.loc 1 389 0 is_stmt 0 discriminator 2
 439 000a 0124     		movs	r4, #1
 440 000c 80F82040 		strb	r4, [r0, #32]
 391:Drivers/STM32F1xx_HAL_Driver/Src/stm32f1xx_hal_dma.c ****   {
 441              		.loc 1 391 0 is_stmt 1 discriminator 2
 442 0010 90F82140 		ldrb	r4, [r0, #33]	@ zero_extendqisi2
 443 0014 012C     		cmp	r4, #1
 444 0016 04D0     		beq	.L37
 421:Drivers/STM32F1xx_HAL_Driver/Src/stm32f1xx_hal_dma.c **** 
 445              		.loc 1 421 0
 446 0018 0023     		movs	r3, #0
 447              	.LVL30:
 448 001a 80F82030 		strb	r3, [r0, #32]
 449              	.LVL31:
 424:Drivers/STM32F1xx_HAL_Driver/Src/stm32f1xx_hal_dma.c ****   }    
 450              		.loc 1 424 0
 451 001e 0220     		movs	r0, #2
 452              	.LVL32:
 453              	.L31:
 427:Drivers/STM32F1xx_HAL_Driver/Src/stm32f1xx_hal_dma.c **** 
 454              		.loc 1 427 0
 455 0020 38BD     		pop	{r3, r4, r5, pc}
 456              	.LVL33:
 457              	.L37:
 458 0022 0446     		mov	r4, r0
 394:Drivers/STM32F1xx_HAL_Driver/Src/stm32f1xx_hal_dma.c ****     hdma->ErrorCode = HAL_DMA_ERROR_NONE;
 459              		.loc 1 394 0
 460 0024 0220     		movs	r0, #2
 461              	.LVL34:
 462 0026 84F82100 		strb	r0, [r4, #33]
 395:Drivers/STM32F1xx_HAL_Driver/Src/stm32f1xx_hal_dma.c ****     
 463              		.loc 1 395 0
 464 002a 0020     		movs	r0, #0
 465 002c A063     		str	r0, [r4, #56]
 398:Drivers/STM32F1xx_HAL_Driver/Src/stm32f1xx_hal_dma.c ****     
 466              		.loc 1 398 0
ARM GAS  /tmp/cco4PWEh.s 			page 26


 467 002e 2568     		ldr	r5, [r4]
 468 0030 2868     		ldr	r0, [r5]
 469 0032 20F00100 		bic	r0, r0, #1
 470 0036 2860     		str	r0, [r5]
 401:Drivers/STM32F1xx_HAL_Driver/Src/stm32f1xx_hal_dma.c ****     
 471              		.loc 1 401 0
 472 0038 2046     		mov	r0, r4
 473 003a FFF7FEFF 		bl	DMA_SetConfig
 474              	.LVL35:
 405:Drivers/STM32F1xx_HAL_Driver/Src/stm32f1xx_hal_dma.c ****     {
 475              		.loc 1 405 0
 476 003e E36A     		ldr	r3, [r4, #44]
 477 0040 5BB1     		cbz	r3, .L33
 408:Drivers/STM32F1xx_HAL_Driver/Src/stm32f1xx_hal_dma.c ****     }
 478              		.loc 1 408 0
 479 0042 2268     		ldr	r2, [r4]
 480 0044 1368     		ldr	r3, [r2]
 481 0046 43F00E03 		orr	r3, r3, #14
 482 004a 1360     		str	r3, [r2]
 483              	.L34:
 416:Drivers/STM32F1xx_HAL_Driver/Src/stm32f1xx_hal_dma.c ****   }
 484              		.loc 1 416 0
 485 004c 2268     		ldr	r2, [r4]
 486 004e 1368     		ldr	r3, [r2]
 487 0050 43F00103 		orr	r3, r3, #1
 488 0054 1360     		str	r3, [r2]
 383:Drivers/STM32F1xx_HAL_Driver/Src/stm32f1xx_hal_dma.c **** 
 489              		.loc 1 383 0
 490 0056 0020     		movs	r0, #0
 491 0058 E2E7     		b	.L31
 492              	.L33:
 412:Drivers/STM32F1xx_HAL_Driver/Src/stm32f1xx_hal_dma.c ****       __HAL_DMA_ENABLE_IT(hdma, (DMA_IT_TC | DMA_IT_TE));
 493              		.loc 1 412 0
 494 005a 2268     		ldr	r2, [r4]
 495 005c 1368     		ldr	r3, [r2]
 496 005e 23F00403 		bic	r3, r3, #4
 497 0062 1360     		str	r3, [r2]
 413:Drivers/STM32F1xx_HAL_Driver/Src/stm32f1xx_hal_dma.c ****     }
 498              		.loc 1 413 0
 499 0064 2268     		ldr	r2, [r4]
 500 0066 1368     		ldr	r3, [r2]
 501 0068 43F00A03 		orr	r3, r3, #10
 502 006c 1360     		str	r3, [r2]
 503 006e EDE7     		b	.L34
 504              	.LVL36:
 505              	.L35:
 389:Drivers/STM32F1xx_HAL_Driver/Src/stm32f1xx_hal_dma.c ****   
 506              		.loc 1 389 0
 507 0070 0220     		movs	r0, #2
 508              	.LVL37:
 509 0072 D5E7     		b	.L31
 510              		.cfi_endproc
 511              	.LFE69:
 513              		.section	.text.HAL_DMA_Abort,"ax",%progbits
 514              		.align	1
 515              		.global	HAL_DMA_Abort
 516              		.syntax unified
ARM GAS  /tmp/cco4PWEh.s 			page 27


 517              		.thumb
 518              		.thumb_func
 519              		.fpu softvfp
 521              	HAL_DMA_Abort:
 522              	.LFB70:
 436:Drivers/STM32F1xx_HAL_Driver/Src/stm32f1xx_hal_dma.c ****   HAL_StatusTypeDef status = HAL_OK;
 523              		.loc 1 436 0
 524              		.cfi_startproc
 525              		@ args = 0, pretend = 0, frame = 0
 526              		@ frame_needed = 0, uses_anonymous_args = 0
 527              		@ link register save eliminated.
 528              	.LVL38:
 529 0000 0346     		mov	r3, r0
 530              	.LVL39:
 440:Drivers/STM32F1xx_HAL_Driver/Src/stm32f1xx_hal_dma.c ****     
 531              		.loc 1 440 0
 532 0002 0168     		ldr	r1, [r0]
 533 0004 0A68     		ldr	r2, [r1]
 534 0006 22F00E02 		bic	r2, r2, #14
 535 000a 0A60     		str	r2, [r1]
 443:Drivers/STM32F1xx_HAL_Driver/Src/stm32f1xx_hal_dma.c ****     
 536              		.loc 1 443 0
 537 000c 0168     		ldr	r1, [r0]
 538 000e 0A68     		ldr	r2, [r1]
 539 0010 22F00102 		bic	r2, r2, #1
 540 0014 0A60     		str	r2, [r1]
 446:Drivers/STM32F1xx_HAL_Driver/Src/stm32f1xx_hal_dma.c **** 
 541              		.loc 1 446 0
 542 0016 026C     		ldr	r2, [r0, #64]
 543 0018 C06B     		ldr	r0, [r0, #60]
 544              	.LVL40:
 545 001a 0121     		movs	r1, #1
 546 001c 01FA02F2 		lsl	r2, r1, r2
 547 0020 4260     		str	r2, [r0, #4]
 449:Drivers/STM32F1xx_HAL_Driver/Src/stm32f1xx_hal_dma.c **** 
 548              		.loc 1 449 0
 549 0022 83F82110 		strb	r1, [r3, #33]
 452:Drivers/STM32F1xx_HAL_Driver/Src/stm32f1xx_hal_dma.c ****   
 550              		.loc 1 452 0
 551 0026 0020     		movs	r0, #0
 552 0028 83F82000 		strb	r0, [r3, #32]
 455:Drivers/STM32F1xx_HAL_Driver/Src/stm32f1xx_hal_dma.c **** 
 553              		.loc 1 455 0
 554 002c 7047     		bx	lr
 555              		.cfi_endproc
 556              	.LFE70:
 558              		.section	.text.HAL_DMA_Abort_IT,"ax",%progbits
 559              		.align	1
 560              		.global	HAL_DMA_Abort_IT
 561              		.syntax unified
 562              		.thumb
 563              		.thumb_func
 564              		.fpu softvfp
 566              	HAL_DMA_Abort_IT:
 567              	.LFB71:
 464:Drivers/STM32F1xx_HAL_Driver/Src/stm32f1xx_hal_dma.c ****   HAL_StatusTypeDef status = HAL_OK;
 568              		.loc 1 464 0
ARM GAS  /tmp/cco4PWEh.s 			page 28


 569              		.cfi_startproc
 570              		@ args = 0, pretend = 0, frame = 0
 571              		@ frame_needed = 0, uses_anonymous_args = 0
 572              	.LVL41:
 573 0000 08B5     		push	{r3, lr}
 574              	.LCFI9:
 575              		.cfi_def_cfa_offset 8
 576              		.cfi_offset 3, -8
 577              		.cfi_offset 14, -4
 578              	.LVL42:
 467:Drivers/STM32F1xx_HAL_Driver/Src/stm32f1xx_hal_dma.c ****   {
 579              		.loc 1 467 0
 580 0002 90F82130 		ldrb	r3, [r0, #33]	@ zero_extendqisi2
 581 0006 022B     		cmp	r3, #2
 582 0008 03D0     		beq	.L40
 470:Drivers/STM32F1xx_HAL_Driver/Src/stm32f1xx_hal_dma.c ****         
 583              		.loc 1 470 0
 584 000a 0423     		movs	r3, #4
 585 000c 8363     		str	r3, [r0, #56]
 586              	.LVL43:
 472:Drivers/STM32F1xx_HAL_Driver/Src/stm32f1xx_hal_dma.c ****   }
 587              		.loc 1 472 0
 588 000e 0120     		movs	r0, #1
 589              	.LVL44:
 590              	.L41:
 498:Drivers/STM32F1xx_HAL_Driver/Src/stm32f1xx_hal_dma.c **** 
 591              		.loc 1 498 0
 592 0010 08BD     		pop	{r3, pc}
 593              	.LVL45:
 594              	.L40:
 477:Drivers/STM32F1xx_HAL_Driver/Src/stm32f1xx_hal_dma.c **** 
 595              		.loc 1 477 0
 596 0012 0268     		ldr	r2, [r0]
 597 0014 1368     		ldr	r3, [r2]
 598 0016 23F00E03 		bic	r3, r3, #14
 599 001a 1360     		str	r3, [r2]
 480:Drivers/STM32F1xx_HAL_Driver/Src/stm32f1xx_hal_dma.c **** 
 600              		.loc 1 480 0
 601 001c 0268     		ldr	r2, [r0]
 602 001e 1368     		ldr	r3, [r2]
 603 0020 23F00103 		bic	r3, r3, #1
 604 0024 1360     		str	r3, [r2]
 483:Drivers/STM32F1xx_HAL_Driver/Src/stm32f1xx_hal_dma.c **** 
 605              		.loc 1 483 0
 606 0026 0368     		ldr	r3, [r0]
 607 0028 4B4A     		ldr	r2, .L72
 608 002a 9342     		cmp	r3, r2
 609 002c 4ED9     		bls	.L42
 483:Drivers/STM32F1xx_HAL_Driver/Src/stm32f1xx_hal_dma.c **** 
 610              		.loc 1 483 0 is_stmt 0 discriminator 1
 611 002e 783A     		subs	r2, r2, #120
 612 0030 9342     		cmp	r3, r2
 613 0032 24D0     		beq	.L46
 483:Drivers/STM32F1xx_HAL_Driver/Src/stm32f1xx_hal_dma.c **** 
 614              		.loc 1 483 0 discriminator 3
 615 0034 1432     		adds	r2, r2, #20
 616 0036 9342     		cmp	r3, r2
ARM GAS  /tmp/cco4PWEh.s 			page 29


 617 0038 30D0     		beq	.L47
 483:Drivers/STM32F1xx_HAL_Driver/Src/stm32f1xx_hal_dma.c **** 
 618              		.loc 1 483 0 discriminator 5
 619 003a 1432     		adds	r2, r2, #20
 620 003c 9342     		cmp	r3, r2
 621 003e 2FD0     		beq	.L48
 483:Drivers/STM32F1xx_HAL_Driver/Src/stm32f1xx_hal_dma.c **** 
 622              		.loc 1 483 0 discriminator 7
 623 0040 1432     		adds	r2, r2, #20
 624 0042 9342     		cmp	r3, r2
 625 0044 2FD0     		beq	.L49
 483:Drivers/STM32F1xx_HAL_Driver/Src/stm32f1xx_hal_dma.c **** 
 626              		.loc 1 483 0 discriminator 9
 627 0046 1432     		adds	r2, r2, #20
 628 0048 9342     		cmp	r3, r2
 629 004a 2FD0     		beq	.L50
 483:Drivers/STM32F1xx_HAL_Driver/Src/stm32f1xx_hal_dma.c **** 
 630              		.loc 1 483 0 discriminator 11
 631 004c 1432     		adds	r2, r2, #20
 632 004e 9342     		cmp	r3, r2
 633 0050 2FD0     		beq	.L51
 483:Drivers/STM32F1xx_HAL_Driver/Src/stm32f1xx_hal_dma.c **** 
 634              		.loc 1 483 0 discriminator 13
 635 0052 1432     		adds	r2, r2, #20
 636 0054 9342     		cmp	r3, r2
 637 0056 2FD0     		beq	.L52
 483:Drivers/STM32F1xx_HAL_Driver/Src/stm32f1xx_hal_dma.c **** 
 638              		.loc 1 483 0 discriminator 15
 639 0058 02F56272 		add	r2, r2, #904
 640 005c 9342     		cmp	r3, r2
 641 005e 2ED0     		beq	.L53
 483:Drivers/STM32F1xx_HAL_Driver/Src/stm32f1xx_hal_dma.c **** 
 642              		.loc 1 483 0 discriminator 17
 643 0060 1432     		adds	r2, r2, #20
 644 0062 9342     		cmp	r3, r2
 645 0064 2DD0     		beq	.L54
 483:Drivers/STM32F1xx_HAL_Driver/Src/stm32f1xx_hal_dma.c **** 
 646              		.loc 1 483 0 discriminator 19
 647 0066 1432     		adds	r2, r2, #20
 648 0068 9342     		cmp	r3, r2
 649 006a 2CD0     		beq	.L55
 483:Drivers/STM32F1xx_HAL_Driver/Src/stm32f1xx_hal_dma.c **** 
 650              		.loc 1 483 0 discriminator 21
 651 006c 1432     		adds	r2, r2, #20
 652 006e 9342     		cmp	r3, r2
 653 0070 02D0     		beq	.L70
 483:Drivers/STM32F1xx_HAL_Driver/Src/stm32f1xx_hal_dma.c **** 
 654              		.loc 1 483 0
 655 0072 4FF48032 		mov	r2, #65536
 656 0076 03E0     		b	.L43
 657              	.L70:
 658 0078 4FF48052 		mov	r2, #4096
 659 007c 00E0     		b	.L43
 660              	.L46:
 661 007e 0122     		movs	r2, #1
 662              	.L43:
 483:Drivers/STM32F1xx_HAL_Driver/Src/stm32f1xx_hal_dma.c **** 
ARM GAS  /tmp/cco4PWEh.s 			page 30


 663              		.loc 1 483 0 discriminator 46
 664 0080 364B     		ldr	r3, .L72+4
 665 0082 5A60     		str	r2, [r3, #4]
 666              	.L44:
 486:Drivers/STM32F1xx_HAL_Driver/Src/stm32f1xx_hal_dma.c **** 
 667              		.loc 1 486 0 is_stmt 1
 668 0084 0123     		movs	r3, #1
 669 0086 80F82130 		strb	r3, [r0, #33]
 489:Drivers/STM32F1xx_HAL_Driver/Src/stm32f1xx_hal_dma.c **** 
 670              		.loc 1 489 0
 671 008a 0023     		movs	r3, #0
 672 008c 80F82030 		strb	r3, [r0, #32]
 492:Drivers/STM32F1xx_HAL_Driver/Src/stm32f1xx_hal_dma.c ****     {
 673              		.loc 1 492 0
 674 0090 436B     		ldr	r3, [r0, #52]
 675 0092 002B     		cmp	r3, #0
 676 0094 5ED0     		beq	.L68
 494:Drivers/STM32F1xx_HAL_Driver/Src/stm32f1xx_hal_dma.c ****     } 
 677              		.loc 1 494 0
 678 0096 9847     		blx	r3
 679              	.LVL46:
 465:Drivers/STM32F1xx_HAL_Driver/Src/stm32f1xx_hal_dma.c ****   
 680              		.loc 1 465 0
 681 0098 0020     		movs	r0, #0
 682 009a B9E7     		b	.L41
 683              	.LVL47:
 684              	.L47:
 483:Drivers/STM32F1xx_HAL_Driver/Src/stm32f1xx_hal_dma.c **** 
 685              		.loc 1 483 0
 686 009c 1022     		movs	r2, #16
 687 009e EFE7     		b	.L43
 688              	.L48:
 689 00a0 4FF48072 		mov	r2, #256
 690 00a4 ECE7     		b	.L43
 691              	.L49:
 692 00a6 4FF48052 		mov	r2, #4096
 693 00aa E9E7     		b	.L43
 694              	.L50:
 695 00ac 4FF48032 		mov	r2, #65536
 696 00b0 E6E7     		b	.L43
 697              	.L51:
 698 00b2 4FF48012 		mov	r2, #1048576
 699 00b6 E3E7     		b	.L43
 700              	.L52:
 701 00b8 4FF08072 		mov	r2, #16777216
 702 00bc E0E7     		b	.L43
 703              	.L53:
 704 00be 0122     		movs	r2, #1
 705 00c0 DEE7     		b	.L43
 706              	.L54:
 707 00c2 1022     		movs	r2, #16
 708 00c4 DCE7     		b	.L43
 709              	.L55:
 710 00c6 4FF48072 		mov	r2, #256
 711 00ca D9E7     		b	.L43
 712              	.L42:
 483:Drivers/STM32F1xx_HAL_Driver/Src/stm32f1xx_hal_dma.c **** 
ARM GAS  /tmp/cco4PWEh.s 			page 31


 713              		.loc 1 483 0 is_stmt 0 discriminator 2
 714 00cc 244A     		ldr	r2, .L72+8
 715 00ce 9342     		cmp	r3, r2
 716 00d0 24D0     		beq	.L57
 483:Drivers/STM32F1xx_HAL_Driver/Src/stm32f1xx_hal_dma.c **** 
 717              		.loc 1 483 0 discriminator 47
 718 00d2 1432     		adds	r2, r2, #20
 719 00d4 9342     		cmp	r3, r2
 720 00d6 25D0     		beq	.L58
 483:Drivers/STM32F1xx_HAL_Driver/Src/stm32f1xx_hal_dma.c **** 
 721              		.loc 1 483 0 discriminator 49
 722 00d8 1432     		adds	r2, r2, #20
 723 00da 9342     		cmp	r3, r2
 724 00dc 24D0     		beq	.L59
 483:Drivers/STM32F1xx_HAL_Driver/Src/stm32f1xx_hal_dma.c **** 
 725              		.loc 1 483 0 discriminator 51
 726 00de 1432     		adds	r2, r2, #20
 727 00e0 9342     		cmp	r3, r2
 728 00e2 24D0     		beq	.L60
 483:Drivers/STM32F1xx_HAL_Driver/Src/stm32f1xx_hal_dma.c **** 
 729              		.loc 1 483 0 discriminator 53
 730 00e4 1432     		adds	r2, r2, #20
 731 00e6 9342     		cmp	r3, r2
 732 00e8 24D0     		beq	.L61
 483:Drivers/STM32F1xx_HAL_Driver/Src/stm32f1xx_hal_dma.c **** 
 733              		.loc 1 483 0 discriminator 55
 734 00ea 1432     		adds	r2, r2, #20
 735 00ec 9342     		cmp	r3, r2
 736 00ee 24D0     		beq	.L62
 483:Drivers/STM32F1xx_HAL_Driver/Src/stm32f1xx_hal_dma.c **** 
 737              		.loc 1 483 0 discriminator 57
 738 00f0 1432     		adds	r2, r2, #20
 739 00f2 9342     		cmp	r3, r2
 740 00f4 24D0     		beq	.L63
 483:Drivers/STM32F1xx_HAL_Driver/Src/stm32f1xx_hal_dma.c **** 
 741              		.loc 1 483 0 discriminator 59
 742 00f6 02F56272 		add	r2, r2, #904
 743 00fa 9342     		cmp	r3, r2
 744 00fc 23D0     		beq	.L64
 483:Drivers/STM32F1xx_HAL_Driver/Src/stm32f1xx_hal_dma.c **** 
 745              		.loc 1 483 0 discriminator 61
 746 00fe 1432     		adds	r2, r2, #20
 747 0100 9342     		cmp	r3, r2
 748 0102 22D0     		beq	.L65
 483:Drivers/STM32F1xx_HAL_Driver/Src/stm32f1xx_hal_dma.c **** 
 749              		.loc 1 483 0 discriminator 63
 750 0104 1432     		adds	r2, r2, #20
 751 0106 9342     		cmp	r3, r2
 752 0108 21D0     		beq	.L66
 483:Drivers/STM32F1xx_HAL_Driver/Src/stm32f1xx_hal_dma.c **** 
 753              		.loc 1 483 0 discriminator 65
 754 010a 1432     		adds	r2, r2, #20
 755 010c 9342     		cmp	r3, r2
 756 010e 02D0     		beq	.L71
 483:Drivers/STM32F1xx_HAL_Driver/Src/stm32f1xx_hal_dma.c **** 
 757              		.loc 1 483 0
 758 0110 4FF48032 		mov	r2, #65536
ARM GAS  /tmp/cco4PWEh.s 			page 32


 759 0114 03E0     		b	.L45
 760              	.L71:
 761 0116 4FF48052 		mov	r2, #4096
 762 011a 00E0     		b	.L45
 763              	.L57:
 764 011c 0122     		movs	r2, #1
 765              	.L45:
 483:Drivers/STM32F1xx_HAL_Driver/Src/stm32f1xx_hal_dma.c **** 
 766              		.loc 1 483 0 discriminator 90
 767 011e 114B     		ldr	r3, .L72+12
 768 0120 5A60     		str	r2, [r3, #4]
 769 0122 AFE7     		b	.L44
 770              	.L58:
 483:Drivers/STM32F1xx_HAL_Driver/Src/stm32f1xx_hal_dma.c **** 
 771              		.loc 1 483 0
 772 0124 1022     		movs	r2, #16
 773 0126 FAE7     		b	.L45
 774              	.L59:
 775 0128 4FF48072 		mov	r2, #256
 776 012c F7E7     		b	.L45
 777              	.L60:
 778 012e 4FF48052 		mov	r2, #4096
 779 0132 F4E7     		b	.L45
 780              	.L61:
 781 0134 4FF48032 		mov	r2, #65536
 782 0138 F1E7     		b	.L45
 783              	.L62:
 784 013a 4FF48012 		mov	r2, #1048576
 785 013e EEE7     		b	.L45
 786              	.L63:
 787 0140 4FF08072 		mov	r2, #16777216
 788 0144 EBE7     		b	.L45
 789              	.L64:
 790 0146 0122     		movs	r2, #1
 791 0148 E9E7     		b	.L45
 792              	.L65:
 793 014a 1022     		movs	r2, #16
 794 014c E7E7     		b	.L45
 795              	.L66:
 796 014e 4FF48072 		mov	r2, #256
 797 0152 E4E7     		b	.L45
 798              	.L68:
 465:Drivers/STM32F1xx_HAL_Driver/Src/stm32f1xx_hal_dma.c ****   
 799              		.loc 1 465 0 is_stmt 1
 800 0154 0020     		movs	r0, #0
 801              	.LVL48:
 802 0156 5BE7     		b	.L41
 803              	.L73:
 804              		.align	2
 805              	.L72:
 806 0158 80000240 		.word	1073873024
 807 015c 00040240 		.word	1073873920
 808 0160 08000240 		.word	1073872904
 809 0164 00000240 		.word	1073872896
 810              		.cfi_endproc
 811              	.LFE71:
 813              		.section	.text.HAL_DMA_PollForTransfer,"ax",%progbits
ARM GAS  /tmp/cco4PWEh.s 			page 33


 814              		.align	1
 815              		.global	HAL_DMA_PollForTransfer
 816              		.syntax unified
 817              		.thumb
 818              		.thumb_func
 819              		.fpu softvfp
 821              	HAL_DMA_PollForTransfer:
 822              	.LFB72:
 509:Drivers/STM32F1xx_HAL_Driver/Src/stm32f1xx_hal_dma.c ****   uint32_t temp;
 823              		.loc 1 509 0
 824              		.cfi_startproc
 825              		@ args = 0, pretend = 0, frame = 0
 826              		@ frame_needed = 0, uses_anonymous_args = 0
 827              	.LVL49:
 828 0000 2DE9F843 		push	{r3, r4, r5, r6, r7, r8, r9, lr}
 829              	.LCFI10:
 830              		.cfi_def_cfa_offset 32
 831              		.cfi_offset 3, -32
 832              		.cfi_offset 4, -28
 833              		.cfi_offset 5, -24
 834              		.cfi_offset 6, -20
 835              		.cfi_offset 7, -16
 836              		.cfi_offset 8, -12
 837              		.cfi_offset 9, -8
 838              		.cfi_offset 14, -4
 839              	.LVL50:
 513:Drivers/STM32F1xx_HAL_Driver/Src/stm32f1xx_hal_dma.c ****   {
 840              		.loc 1 513 0
 841 0004 90F82130 		ldrb	r3, [r0, #33]	@ zero_extendqisi2
 842 0008 022B     		cmp	r3, #2
 843 000a 07D0     		beq	.L75
 516:Drivers/STM32F1xx_HAL_Driver/Src/stm32f1xx_hal_dma.c ****     __HAL_UNLOCK(hdma);
 844              		.loc 1 516 0
 845 000c 0423     		movs	r3, #4
 846 000e 8363     		str	r3, [r0, #56]
 517:Drivers/STM32F1xx_HAL_Driver/Src/stm32f1xx_hal_dma.c ****     return HAL_ERROR;
 847              		.loc 1 517 0
 848 0010 0023     		movs	r3, #0
 849 0012 80F82030 		strb	r3, [r0, #32]
 518:Drivers/STM32F1xx_HAL_Driver/Src/stm32f1xx_hal_dma.c ****   }
 850              		.loc 1 518 0
 851 0016 0120     		movs	r0, #1
 852              	.LVL51:
 853              	.L76:
 601:Drivers/STM32F1xx_HAL_Driver/Src/stm32f1xx_hal_dma.c **** 
 854              		.loc 1 601 0
 855 0018 BDE8F883 		pop	{r3, r4, r5, r6, r7, r8, r9, pc}
 856              	.LVL52:
 857              	.L75:
 522:Drivers/STM32F1xx_HAL_Driver/Src/stm32f1xx_hal_dma.c ****   {
 858              		.loc 1 522 0
 859 001c 0368     		ldr	r3, [r0]
 860 001e 1C68     		ldr	r4, [r3]
 861 0020 14F0200F 		tst	r4, #32
 862 0024 25D1     		bne	.L189
 529:Drivers/STM32F1xx_HAL_Driver/Src/stm32f1xx_hal_dma.c ****   {
 863              		.loc 1 529 0
ARM GAS  /tmp/cco4PWEh.s 			page 34


 864 0026 61BB     		cbnz	r1, .L78
 532:Drivers/STM32F1xx_HAL_Driver/Src/stm32f1xx_hal_dma.c ****   }
 865              		.loc 1 532 0
 866 0028 B04C     		ldr	r4, .L201
 867 002a A342     		cmp	r3, r4
 868 002c 51D0     		beq	.L100
 532:Drivers/STM32F1xx_HAL_Driver/Src/stm32f1xx_hal_dma.c ****   }
 869              		.loc 1 532 0 is_stmt 0 discriminator 1
 870 002e 1434     		adds	r4, r4, #20
 871 0030 A342     		cmp	r3, r4
 872 0032 56D0     		beq	.L101
 532:Drivers/STM32F1xx_HAL_Driver/Src/stm32f1xx_hal_dma.c ****   }
 873              		.loc 1 532 0 discriminator 3
 874 0034 1434     		adds	r4, r4, #20
 875 0036 A342     		cmp	r3, r4
 876 0038 55D0     		beq	.L102
 532:Drivers/STM32F1xx_HAL_Driver/Src/stm32f1xx_hal_dma.c ****   }
 877              		.loc 1 532 0 discriminator 5
 878 003a 1434     		adds	r4, r4, #20
 879 003c A342     		cmp	r3, r4
 880 003e 55D0     		beq	.L103
 532:Drivers/STM32F1xx_HAL_Driver/Src/stm32f1xx_hal_dma.c ****   }
 881              		.loc 1 532 0 discriminator 7
 882 0040 1434     		adds	r4, r4, #20
 883 0042 A342     		cmp	r3, r4
 884 0044 55D0     		beq	.L104
 532:Drivers/STM32F1xx_HAL_Driver/Src/stm32f1xx_hal_dma.c ****   }
 885              		.loc 1 532 0 discriminator 9
 886 0046 1434     		adds	r4, r4, #20
 887 0048 A342     		cmp	r3, r4
 888 004a 55D0     		beq	.L105
 532:Drivers/STM32F1xx_HAL_Driver/Src/stm32f1xx_hal_dma.c ****   }
 889              		.loc 1 532 0 discriminator 11
 890 004c 1434     		adds	r4, r4, #20
 891 004e A342     		cmp	r3, r4
 892 0050 55D0     		beq	.L106
 532:Drivers/STM32F1xx_HAL_Driver/Src/stm32f1xx_hal_dma.c ****   }
 893              		.loc 1 532 0 discriminator 13
 894 0052 04F56274 		add	r4, r4, #904
 895 0056 A342     		cmp	r3, r4
 896 0058 54D0     		beq	.L107
 532:Drivers/STM32F1xx_HAL_Driver/Src/stm32f1xx_hal_dma.c ****   }
 897              		.loc 1 532 0 discriminator 15
 898 005a 1434     		adds	r4, r4, #20
 899 005c A342     		cmp	r3, r4
 900 005e 53D0     		beq	.L108
 532:Drivers/STM32F1xx_HAL_Driver/Src/stm32f1xx_hal_dma.c ****   }
 901              		.loc 1 532 0 discriminator 17
 902 0060 1434     		adds	r4, r4, #20
 903 0062 A342     		cmp	r3, r4
 904 0064 52D0     		beq	.L109
 532:Drivers/STM32F1xx_HAL_Driver/Src/stm32f1xx_hal_dma.c ****   }
 905              		.loc 1 532 0 discriminator 19
 906 0066 1434     		adds	r4, r4, #20
 907 0068 A342     		cmp	r3, r4
 908 006a 07D0     		beq	.L190
 532:Drivers/STM32F1xx_HAL_Driver/Src/stm32f1xx_hal_dma.c ****   }
ARM GAS  /tmp/cco4PWEh.s 			page 35


 909              		.loc 1 532 0
 910 006c 4FF40037 		mov	r7, #131072
 911 0070 30E0     		b	.L79
 912              	.L189:
 524:Drivers/STM32F1xx_HAL_Driver/Src/stm32f1xx_hal_dma.c ****     return HAL_ERROR;
 913              		.loc 1 524 0 is_stmt 1
 914 0072 4FF48073 		mov	r3, #256
 915 0076 8363     		str	r3, [r0, #56]
 525:Drivers/STM32F1xx_HAL_Driver/Src/stm32f1xx_hal_dma.c ****   }
 916              		.loc 1 525 0
 917 0078 0120     		movs	r0, #1
 918              	.LVL53:
 919 007a CDE7     		b	.L76
 920              	.LVL54:
 921              	.L190:
 532:Drivers/STM32F1xx_HAL_Driver/Src/stm32f1xx_hal_dma.c ****   }
 922              		.loc 1 532 0
 923 007c 4FF40057 		mov	r7, #8192
 924 0080 28E0     		b	.L79
 925              	.L78:
 537:Drivers/STM32F1xx_HAL_Driver/Src/stm32f1xx_hal_dma.c ****   }
 926              		.loc 1 537 0
 927 0082 9A4C     		ldr	r4, .L201
 928 0084 A342     		cmp	r3, r4
 929 0086 44D0     		beq	.L111
 537:Drivers/STM32F1xx_HAL_Driver/Src/stm32f1xx_hal_dma.c ****   }
 930              		.loc 1 537 0 is_stmt 0 discriminator 1
 931 0088 1434     		adds	r4, r4, #20
 932 008a A342     		cmp	r3, r4
 933 008c 43D0     		beq	.L112
 537:Drivers/STM32F1xx_HAL_Driver/Src/stm32f1xx_hal_dma.c ****   }
 934              		.loc 1 537 0 discriminator 3
 935 008e 1434     		adds	r4, r4, #20
 936 0090 A342     		cmp	r3, r4
 937 0092 42D0     		beq	.L113
 537:Drivers/STM32F1xx_HAL_Driver/Src/stm32f1xx_hal_dma.c ****   }
 938              		.loc 1 537 0 discriminator 5
 939 0094 1434     		adds	r4, r4, #20
 940 0096 A342     		cmp	r3, r4
 941 0098 42D0     		beq	.L114
 537:Drivers/STM32F1xx_HAL_Driver/Src/stm32f1xx_hal_dma.c ****   }
 942              		.loc 1 537 0 discriminator 7
 943 009a 1434     		adds	r4, r4, #20
 944 009c A342     		cmp	r3, r4
 945 009e 42D0     		beq	.L115
 537:Drivers/STM32F1xx_HAL_Driver/Src/stm32f1xx_hal_dma.c ****   }
 946              		.loc 1 537 0 discriminator 9
 947 00a0 1434     		adds	r4, r4, #20
 948 00a2 A342     		cmp	r3, r4
 949 00a4 42D0     		beq	.L116
 537:Drivers/STM32F1xx_HAL_Driver/Src/stm32f1xx_hal_dma.c ****   }
 950              		.loc 1 537 0 discriminator 11
 951 00a6 1434     		adds	r4, r4, #20
 952 00a8 A342     		cmp	r3, r4
 953 00aa 42D0     		beq	.L117
 537:Drivers/STM32F1xx_HAL_Driver/Src/stm32f1xx_hal_dma.c ****   }
 954              		.loc 1 537 0 discriminator 13
ARM GAS  /tmp/cco4PWEh.s 			page 36


 955 00ac 04F56274 		add	r4, r4, #904
 956 00b0 A342     		cmp	r3, r4
 957 00b2 41D0     		beq	.L118
 537:Drivers/STM32F1xx_HAL_Driver/Src/stm32f1xx_hal_dma.c ****   }
 958              		.loc 1 537 0 discriminator 15
 959 00b4 1434     		adds	r4, r4, #20
 960 00b6 A342     		cmp	r3, r4
 961 00b8 40D0     		beq	.L119
 537:Drivers/STM32F1xx_HAL_Driver/Src/stm32f1xx_hal_dma.c ****   }
 962              		.loc 1 537 0 discriminator 17
 963 00ba 1434     		adds	r4, r4, #20
 964 00bc A342     		cmp	r3, r4
 965 00be 3FD0     		beq	.L120
 537:Drivers/STM32F1xx_HAL_Driver/Src/stm32f1xx_hal_dma.c ****   }
 966              		.loc 1 537 0 discriminator 19
 967 00c0 1434     		adds	r4, r4, #20
 968 00c2 A342     		cmp	r3, r4
 969 00c4 02D0     		beq	.L191
 537:Drivers/STM32F1xx_HAL_Driver/Src/stm32f1xx_hal_dma.c ****   }
 970              		.loc 1 537 0
 971 00c6 4FF48027 		mov	r7, #262144
 972 00ca 03E0     		b	.L79
 973              	.L191:
 974 00cc 4FF48047 		mov	r7, #16384
 975 00d0 00E0     		b	.L79
 976              	.L100:
 532:Drivers/STM32F1xx_HAL_Driver/Src/stm32f1xx_hal_dma.c ****   }
 977              		.loc 1 532 0 is_stmt 1
 978 00d2 0227     		movs	r7, #2
 979              	.L79:
 980 00d4 1646     		mov	r6, r2
 981 00d6 8846     		mov	r8, r1
 982 00d8 0546     		mov	r5, r0
 983              	.LVL55:
 541:Drivers/STM32F1xx_HAL_Driver/Src/stm32f1xx_hal_dma.c **** 
 984              		.loc 1 541 0
 985 00da FFF7FEFF 		bl	HAL_GetTick
 986              	.LVL56:
 987 00de 8146     		mov	r9, r0
 988              	.LVL57:
 543:Drivers/STM32F1xx_HAL_Driver/Src/stm32f1xx_hal_dma.c ****   {
 989              		.loc 1 543 0
 990 00e0 40E0     		b	.L86
 991              	.LVL58:
 992              	.L101:
 532:Drivers/STM32F1xx_HAL_Driver/Src/stm32f1xx_hal_dma.c ****   }
 993              		.loc 1 532 0
 994 00e2 2027     		movs	r7, #32
 995 00e4 F6E7     		b	.L79
 996              	.L102:
 997 00e6 4FF40077 		mov	r7, #512
 998 00ea F3E7     		b	.L79
 999              	.L103:
 1000 00ec 4FF40057 		mov	r7, #8192
 1001 00f0 F0E7     		b	.L79
 1002              	.L104:
 1003 00f2 4FF40037 		mov	r7, #131072
ARM GAS  /tmp/cco4PWEh.s 			page 37


 1004 00f6 EDE7     		b	.L79
 1005              	.L105:
 1006 00f8 4FF40017 		mov	r7, #2097152
 1007 00fc EAE7     		b	.L79
 1008              	.L106:
 1009 00fe 4FF00077 		mov	r7, #33554432
 1010 0102 E7E7     		b	.L79
 1011              	.L107:
 1012 0104 0227     		movs	r7, #2
 1013 0106 E5E7     		b	.L79
 1014              	.L108:
 1015 0108 2027     		movs	r7, #32
 1016 010a E3E7     		b	.L79
 1017              	.L109:
 1018 010c 4FF40077 		mov	r7, #512
 1019 0110 E0E7     		b	.L79
 1020              	.L111:
 537:Drivers/STM32F1xx_HAL_Driver/Src/stm32f1xx_hal_dma.c ****   }
 1021              		.loc 1 537 0
 1022 0112 0427     		movs	r7, #4
 1023 0114 DEE7     		b	.L79
 1024              	.L112:
 1025 0116 4027     		movs	r7, #64
 1026 0118 DCE7     		b	.L79
 1027              	.L113:
 1028 011a 4FF48067 		mov	r7, #1024
 1029 011e D9E7     		b	.L79
 1030              	.L114:
 1031 0120 4FF48047 		mov	r7, #16384
 1032 0124 D6E7     		b	.L79
 1033              	.L115:
 1034 0126 4FF48027 		mov	r7, #262144
 1035 012a D3E7     		b	.L79
 1036              	.L116:
 1037 012c 4FF48007 		mov	r7, #4194304
 1038 0130 D0E7     		b	.L79
 1039              	.L117:
 1040 0132 4FF08067 		mov	r7, #67108864
 1041 0136 CDE7     		b	.L79
 1042              	.L118:
 1043 0138 0427     		movs	r7, #4
 1044 013a CBE7     		b	.L79
 1045              	.L119:
 1046 013c 4027     		movs	r7, #64
 1047 013e C9E7     		b	.L79
 1048              	.L120:
 1049 0140 4FF48067 		mov	r7, #1024
 1050 0144 C6E7     		b	.L79
 1051              	.LVL59:
 1052              	.L195:
 545:Drivers/STM32F1xx_HAL_Driver/Src/stm32f1xx_hal_dma.c ****     {
 1053              		.loc 1 545 0
 1054 0146 4FF40043 		mov	r3, #32768
 1055 014a 00E0     		b	.L82
 1056              	.L122:
 1057 014c 0823     		movs	r3, #8
 1058              	.L82:
ARM GAS  /tmp/cco4PWEh.s 			page 38


 545:Drivers/STM32F1xx_HAL_Driver/Src/stm32f1xx_hal_dma.c ****     {
 1059              		.loc 1 545 0 is_stmt 0 discriminator 46
 1060 014e 1A42     		tst	r2, r3
 1061 0150 14BF     		ite	ne
 1062 0152 0123     		movne	r3, #1
 1063 0154 0023     		moveq	r3, #0
 1064              	.L83:
 545:Drivers/STM32F1xx_HAL_Driver/Src/stm32f1xx_hal_dma.c ****     {
 1065              		.loc 1 545 0 discriminator 92
 1066 0156 002B     		cmp	r3, #0
 1067 0158 40F09E80 		bne	.L192
 564:Drivers/STM32F1xx_HAL_Driver/Src/stm32f1xx_hal_dma.c ****     {
 1068              		.loc 1 564 0 is_stmt 1
 1069 015c B6F1FF3F 		cmp	r6, #-1
 1070 0160 40F0A980 		bne	.L193
 1071              	.L86:
 543:Drivers/STM32F1xx_HAL_Driver/Src/stm32f1xx_hal_dma.c ****   {
 1072              		.loc 1 543 0
 1073 0164 2B68     		ldr	r3, [r5]
 1074 0166 1A46     		mov	r2, r3
 1075 0168 614C     		ldr	r4, .L201+4
 1076 016a A342     		cmp	r3, r4
 1077 016c 40F2B680 		bls	.L88
 543:Drivers/STM32F1xx_HAL_Driver/Src/stm32f1xx_hal_dma.c ****   {
 1078              		.loc 1 543 0 is_stmt 0 discriminator 1
 1079 0170 6049     		ldr	r1, .L201+8
 1080 0172 0968     		ldr	r1, [r1]
 1081 0174 3942     		tst	r1, r7
 1082 0176 0CBF     		ite	eq
 1083 0178 0124     		moveq	r4, #1
 1084 017a 0024     		movne	r4, #0
 1085              	.L89:
 543:Drivers/STM32F1xx_HAL_Driver/Src/stm32f1xx_hal_dma.c ****   {
 1086              		.loc 1 543 0 discriminator 4
 1087 017c 002C     		cmp	r4, #0
 1088 017e 00F0BD80 		beq	.L194
 545:Drivers/STM32F1xx_HAL_Driver/Src/stm32f1xx_hal_dma.c ****     {
 1089              		.loc 1 545 0 is_stmt 1
 1090 0182 5B4A     		ldr	r2, .L201+4
 1091 0184 9342     		cmp	r3, r2
 1092 0186 3FD9     		bls	.L81
 545:Drivers/STM32F1xx_HAL_Driver/Src/stm32f1xx_hal_dma.c ****     {
 1093              		.loc 1 545 0 is_stmt 0 discriminator 1
 1094 0188 02F56072 		add	r2, r2, #896
 1095 018c 1268     		ldr	r2, [r2]
 1096 018e 5749     		ldr	r1, .L201
 1097 0190 8B42     		cmp	r3, r1
 1098 0192 DBD0     		beq	.L122
 545:Drivers/STM32F1xx_HAL_Driver/Src/stm32f1xx_hal_dma.c ****     {
 1099              		.loc 1 545 0 discriminator 3
 1100 0194 1431     		adds	r1, r1, #20
 1101 0196 8B42     		cmp	r3, r1
 1102 0198 1ED0     		beq	.L123
 545:Drivers/STM32F1xx_HAL_Driver/Src/stm32f1xx_hal_dma.c ****     {
 1103              		.loc 1 545 0 discriminator 5
 1104 019a 1431     		adds	r1, r1, #20
 1105 019c 8B42     		cmp	r3, r1
ARM GAS  /tmp/cco4PWEh.s 			page 39


 1106 019e 1DD0     		beq	.L124
 545:Drivers/STM32F1xx_HAL_Driver/Src/stm32f1xx_hal_dma.c ****     {
 1107              		.loc 1 545 0 discriminator 7
 1108 01a0 1431     		adds	r1, r1, #20
 1109 01a2 8B42     		cmp	r3, r1
 1110 01a4 1DD0     		beq	.L125
 545:Drivers/STM32F1xx_HAL_Driver/Src/stm32f1xx_hal_dma.c ****     {
 1111              		.loc 1 545 0 discriminator 9
 1112 01a6 1431     		adds	r1, r1, #20
 1113 01a8 8B42     		cmp	r3, r1
 1114 01aa 1DD0     		beq	.L126
 545:Drivers/STM32F1xx_HAL_Driver/Src/stm32f1xx_hal_dma.c ****     {
 1115              		.loc 1 545 0 discriminator 11
 1116 01ac 1431     		adds	r1, r1, #20
 1117 01ae 8B42     		cmp	r3, r1
 1118 01b0 1DD0     		beq	.L127
 545:Drivers/STM32F1xx_HAL_Driver/Src/stm32f1xx_hal_dma.c ****     {
 1119              		.loc 1 545 0 discriminator 13
 1120 01b2 1431     		adds	r1, r1, #20
 1121 01b4 8B42     		cmp	r3, r1
 1122 01b6 1DD0     		beq	.L128
 545:Drivers/STM32F1xx_HAL_Driver/Src/stm32f1xx_hal_dma.c ****     {
 1123              		.loc 1 545 0 discriminator 15
 1124 01b8 01F56271 		add	r1, r1, #904
 1125 01bc 8B42     		cmp	r3, r1
 1126 01be 1CD0     		beq	.L129
 545:Drivers/STM32F1xx_HAL_Driver/Src/stm32f1xx_hal_dma.c ****     {
 1127              		.loc 1 545 0 discriminator 17
 1128 01c0 1431     		adds	r1, r1, #20
 1129 01c2 8B42     		cmp	r3, r1
 1130 01c4 1BD0     		beq	.L130
 545:Drivers/STM32F1xx_HAL_Driver/Src/stm32f1xx_hal_dma.c ****     {
 1131              		.loc 1 545 0 discriminator 19
 1132 01c6 1431     		adds	r1, r1, #20
 1133 01c8 8B42     		cmp	r3, r1
 1134 01ca 1AD0     		beq	.L131
 545:Drivers/STM32F1xx_HAL_Driver/Src/stm32f1xx_hal_dma.c ****     {
 1135              		.loc 1 545 0 discriminator 21
 1136 01cc 1431     		adds	r1, r1, #20
 1137 01ce 8B42     		cmp	r3, r1
 1138 01d0 B9D0     		beq	.L195
 545:Drivers/STM32F1xx_HAL_Driver/Src/stm32f1xx_hal_dma.c ****     {
 1139              		.loc 1 545 0
 1140 01d2 4FF40023 		mov	r3, #524288
 1141 01d6 BAE7     		b	.L82
 1142              	.L123:
 1143 01d8 8023     		movs	r3, #128
 1144 01da B8E7     		b	.L82
 1145              	.L124:
 1146 01dc 4FF40063 		mov	r3, #2048
 1147 01e0 B5E7     		b	.L82
 1148              	.L125:
 1149 01e2 4FF40043 		mov	r3, #32768
 1150 01e6 B2E7     		b	.L82
 1151              	.L126:
 1152 01e8 4FF40023 		mov	r3, #524288
 1153 01ec AFE7     		b	.L82
ARM GAS  /tmp/cco4PWEh.s 			page 40


 1154              	.L127:
 1155 01ee 4FF40003 		mov	r3, #8388608
 1156 01f2 ACE7     		b	.L82
 1157              	.L128:
 1158 01f4 4FF00063 		mov	r3, #134217728
 1159 01f8 A9E7     		b	.L82
 1160              	.L129:
 1161 01fa 0823     		movs	r3, #8
 1162 01fc A7E7     		b	.L82
 1163              	.L130:
 1164 01fe 8023     		movs	r3, #128
 1165 0200 A5E7     		b	.L82
 1166              	.L131:
 1167 0202 4FF40063 		mov	r3, #2048
 1168 0206 A2E7     		b	.L82
 1169              	.L81:
 545:Drivers/STM32F1xx_HAL_Driver/Src/stm32f1xx_hal_dma.c ****     {
 1170              		.loc 1 545 0 discriminator 2
 1171 0208 3B4A     		ldr	r2, .L201+12
 1172 020a 1268     		ldr	r2, [r2]
 1173 020c 3749     		ldr	r1, .L201
 1174 020e 8B42     		cmp	r3, r1
 1175 0210 24D0     		beq	.L133
 545:Drivers/STM32F1xx_HAL_Driver/Src/stm32f1xx_hal_dma.c ****     {
 1176              		.loc 1 545 0 discriminator 48
 1177 0212 1431     		adds	r1, r1, #20
 1178 0214 8B42     		cmp	r3, r1
 1179 0216 27D0     		beq	.L134
 545:Drivers/STM32F1xx_HAL_Driver/Src/stm32f1xx_hal_dma.c ****     {
 1180              		.loc 1 545 0 discriminator 50
 1181 0218 1431     		adds	r1, r1, #20
 1182 021a 8B42     		cmp	r3, r1
 1183 021c 26D0     		beq	.L135
 545:Drivers/STM32F1xx_HAL_Driver/Src/stm32f1xx_hal_dma.c ****     {
 1184              		.loc 1 545 0 discriminator 52
 1185 021e 1431     		adds	r1, r1, #20
 1186 0220 8B42     		cmp	r3, r1
 1187 0222 26D0     		beq	.L136
 545:Drivers/STM32F1xx_HAL_Driver/Src/stm32f1xx_hal_dma.c ****     {
 1188              		.loc 1 545 0 discriminator 54
 1189 0224 1431     		adds	r1, r1, #20
 1190 0226 8B42     		cmp	r3, r1
 1191 0228 26D0     		beq	.L137
 545:Drivers/STM32F1xx_HAL_Driver/Src/stm32f1xx_hal_dma.c ****     {
 1192              		.loc 1 545 0 discriminator 56
 1193 022a 1431     		adds	r1, r1, #20
 1194 022c 8B42     		cmp	r3, r1
 1195 022e 26D0     		beq	.L138
 545:Drivers/STM32F1xx_HAL_Driver/Src/stm32f1xx_hal_dma.c ****     {
 1196              		.loc 1 545 0 discriminator 58
 1197 0230 1431     		adds	r1, r1, #20
 1198 0232 8B42     		cmp	r3, r1
 1199 0234 26D0     		beq	.L139
 545:Drivers/STM32F1xx_HAL_Driver/Src/stm32f1xx_hal_dma.c ****     {
 1200              		.loc 1 545 0 discriminator 60
 1201 0236 01F56271 		add	r1, r1, #904
 1202 023a 8B42     		cmp	r3, r1
ARM GAS  /tmp/cco4PWEh.s 			page 41


 1203 023c 25D0     		beq	.L140
 545:Drivers/STM32F1xx_HAL_Driver/Src/stm32f1xx_hal_dma.c ****     {
 1204              		.loc 1 545 0 discriminator 62
 1205 023e 1431     		adds	r1, r1, #20
 1206 0240 8B42     		cmp	r3, r1
 1207 0242 24D0     		beq	.L141
 545:Drivers/STM32F1xx_HAL_Driver/Src/stm32f1xx_hal_dma.c ****     {
 1208              		.loc 1 545 0 discriminator 64
 1209 0244 1431     		adds	r1, r1, #20
 1210 0246 8B42     		cmp	r3, r1
 1211 0248 23D0     		beq	.L142
 545:Drivers/STM32F1xx_HAL_Driver/Src/stm32f1xx_hal_dma.c ****     {
 1212              		.loc 1 545 0 discriminator 66
 1213 024a 1431     		adds	r1, r1, #20
 1214 024c 8B42     		cmp	r3, r1
 1215 024e 02D0     		beq	.L196
 545:Drivers/STM32F1xx_HAL_Driver/Src/stm32f1xx_hal_dma.c ****     {
 1216              		.loc 1 545 0
 1217 0250 4FF40023 		mov	r3, #524288
 1218 0254 03E0     		b	.L84
 1219              	.L196:
 1220 0256 4FF40043 		mov	r3, #32768
 1221 025a 00E0     		b	.L84
 1222              	.L133:
 1223 025c 0823     		movs	r3, #8
 1224              	.L84:
 545:Drivers/STM32F1xx_HAL_Driver/Src/stm32f1xx_hal_dma.c ****     {
 1225              		.loc 1 545 0 discriminator 91
 1226 025e 1A42     		tst	r2, r3
 1227 0260 14BF     		ite	ne
 1228 0262 0123     		movne	r3, #1
 1229 0264 0023     		moveq	r3, #0
 1230 0266 76E7     		b	.L83
 1231              	.L134:
 545:Drivers/STM32F1xx_HAL_Driver/Src/stm32f1xx_hal_dma.c ****     {
 1232              		.loc 1 545 0
 1233 0268 8023     		movs	r3, #128
 1234 026a F8E7     		b	.L84
 1235              	.L135:
 1236 026c 4FF40063 		mov	r3, #2048
 1237 0270 F5E7     		b	.L84
 1238              	.L136:
 1239 0272 4FF40043 		mov	r3, #32768
 1240 0276 F2E7     		b	.L84
 1241              	.L137:
 1242 0278 4FF40023 		mov	r3, #524288
 1243 027c EFE7     		b	.L84
 1244              	.L138:
 1245 027e 4FF40003 		mov	r3, #8388608
 1246 0282 ECE7     		b	.L84
 1247              	.L139:
 1248 0284 4FF00063 		mov	r3, #134217728
 1249 0288 E9E7     		b	.L84
 1250              	.L140:
 1251 028a 0823     		movs	r3, #8
 1252 028c E7E7     		b	.L84
 1253              	.L141:
ARM GAS  /tmp/cco4PWEh.s 			page 42


 1254 028e 8023     		movs	r3, #128
 1255 0290 E5E7     		b	.L84
 1256              	.L142:
 1257 0292 4FF40063 		mov	r3, #2048
 1258 0296 E2E7     		b	.L84
 1259              	.L192:
 550:Drivers/STM32F1xx_HAL_Driver/Src/stm32f1xx_hal_dma.c **** 
 1260              		.loc 1 550 0 is_stmt 1
 1261 0298 2B6C     		ldr	r3, [r5, #64]
 1262 029a EA6B     		ldr	r2, [r5, #60]
 1263 029c 0120     		movs	r0, #1
 1264 029e 00FA03F3 		lsl	r3, r0, r3
 1265 02a2 5360     		str	r3, [r2, #4]
 553:Drivers/STM32F1xx_HAL_Driver/Src/stm32f1xx_hal_dma.c **** 
 1266              		.loc 1 553 0
 1267 02a4 AB6B     		ldr	r3, [r5, #56]
 1268 02a6 0343     		orrs	r3, r3, r0
 1269 02a8 AB63     		str	r3, [r5, #56]
 556:Drivers/STM32F1xx_HAL_Driver/Src/stm32f1xx_hal_dma.c **** 
 1270              		.loc 1 556 0
 1271 02aa 85F82100 		strb	r0, [r5, #33]
 559:Drivers/STM32F1xx_HAL_Driver/Src/stm32f1xx_hal_dma.c **** 
 1272              		.loc 1 559 0
 1273 02ae 0023     		movs	r3, #0
 1274 02b0 85F82030 		strb	r3, [r5, #32]
 561:Drivers/STM32F1xx_HAL_Driver/Src/stm32f1xx_hal_dma.c ****     }
 1275              		.loc 1 561 0
 1276 02b4 B0E6     		b	.L76
 1277              	.L193:
 566:Drivers/STM32F1xx_HAL_Driver/Src/stm32f1xx_hal_dma.c ****       {
 1278              		.loc 1 566 0
 1279 02b6 36B1     		cbz	r6, .L87
 566:Drivers/STM32F1xx_HAL_Driver/Src/stm32f1xx_hal_dma.c ****       {
 1280              		.loc 1 566 0 is_stmt 0 discriminator 1
 1281 02b8 FFF7FEFF 		bl	HAL_GetTick
 1282              	.LVL60:
 1283 02bc A0EB0900 		sub	r0, r0, r9
 1284 02c0 B042     		cmp	r0, r6
 1285 02c2 7FF64FAF 		bls	.L86
 1286              	.L87:
 569:Drivers/STM32F1xx_HAL_Driver/Src/stm32f1xx_hal_dma.c **** 
 1287              		.loc 1 569 0 is_stmt 1
 1288 02c6 AB6B     		ldr	r3, [r5, #56]
 1289 02c8 43F02003 		orr	r3, r3, #32
 1290 02cc AB63     		str	r3, [r5, #56]
 572:Drivers/STM32F1xx_HAL_Driver/Src/stm32f1xx_hal_dma.c **** 
 1291              		.loc 1 572 0
 1292 02ce 0120     		movs	r0, #1
 1293 02d0 85F82100 		strb	r0, [r5, #33]
 575:Drivers/STM32F1xx_HAL_Driver/Src/stm32f1xx_hal_dma.c **** 
 1294              		.loc 1 575 0
 1295 02d4 0023     		movs	r3, #0
 1296 02d6 85F82030 		strb	r3, [r5, #32]
 577:Drivers/STM32F1xx_HAL_Driver/Src/stm32f1xx_hal_dma.c ****       }
 1297              		.loc 1 577 0
 1298 02da 9DE6     		b	.L76
 1299              	.L88:
ARM GAS  /tmp/cco4PWEh.s 			page 43


 543:Drivers/STM32F1xx_HAL_Driver/Src/stm32f1xx_hal_dma.c ****   {
 1300              		.loc 1 543 0 discriminator 2
 1301 02dc 0649     		ldr	r1, .L201+12
 1302 02de 0968     		ldr	r1, [r1]
 1303 02e0 3942     		tst	r1, r7
 1304 02e2 0CBF     		ite	eq
 1305 02e4 0124     		moveq	r4, #1
 1306 02e6 0024     		movne	r4, #0
 1307 02e8 48E7     		b	.L89
 1308              	.L202:
 1309 02ea 00BF     		.align	2
 1310              	.L201:
 1311 02ec 08000240 		.word	1073872904
 1312 02f0 80000240 		.word	1073873024
 1313 02f4 00040240 		.word	1073873920
 1314 02f8 00000240 		.word	1073872896
 1315              	.L194:
 582:Drivers/STM32F1xx_HAL_Driver/Src/stm32f1xx_hal_dma.c ****   {
 1316              		.loc 1 582 0
 1317 02fc B8F1000F 		cmp	r8, #0
 1318 0300 40F09080 		bne	.L91
 585:Drivers/STM32F1xx_HAL_Driver/Src/stm32f1xx_hal_dma.c **** 
 1319              		.loc 1 585 0
 1320 0304 8C49     		ldr	r1, .L203
 1321 0306 8A42     		cmp	r2, r1
 1322 0308 48D9     		bls	.L92
 585:Drivers/STM32F1xx_HAL_Driver/Src/stm32f1xx_hal_dma.c **** 
 1323              		.loc 1 585 0 is_stmt 0 discriminator 1
 1324 030a 8C4A     		ldr	r2, .L203+4
 1325 030c 9342     		cmp	r3, r2
 1326 030e 23D0     		beq	.L144
 585:Drivers/STM32F1xx_HAL_Driver/Src/stm32f1xx_hal_dma.c **** 
 1327              		.loc 1 585 0 discriminator 3
 1328 0310 1432     		adds	r2, r2, #20
 1329 0312 9342     		cmp	r3, r2
 1330 0314 2AD0     		beq	.L145
 585:Drivers/STM32F1xx_HAL_Driver/Src/stm32f1xx_hal_dma.c **** 
 1331              		.loc 1 585 0 discriminator 5
 1332 0316 1432     		adds	r2, r2, #20
 1333 0318 9342     		cmp	r3, r2
 1334 031a 29D0     		beq	.L146
 585:Drivers/STM32F1xx_HAL_Driver/Src/stm32f1xx_hal_dma.c **** 
 1335              		.loc 1 585 0 discriminator 7
 1336 031c 1432     		adds	r2, r2, #20
 1337 031e 9342     		cmp	r3, r2
 1338 0320 29D0     		beq	.L147
 585:Drivers/STM32F1xx_HAL_Driver/Src/stm32f1xx_hal_dma.c **** 
 1339              		.loc 1 585 0 discriminator 9
 1340 0322 1432     		adds	r2, r2, #20
 1341 0324 9342     		cmp	r3, r2
 1342 0326 29D0     		beq	.L148
 585:Drivers/STM32F1xx_HAL_Driver/Src/stm32f1xx_hal_dma.c **** 
 1343              		.loc 1 585 0 discriminator 11
 1344 0328 1432     		adds	r2, r2, #20
 1345 032a 9342     		cmp	r3, r2
 1346 032c 29D0     		beq	.L149
 585:Drivers/STM32F1xx_HAL_Driver/Src/stm32f1xx_hal_dma.c **** 
ARM GAS  /tmp/cco4PWEh.s 			page 44


 1347              		.loc 1 585 0 discriminator 13
 1348 032e 8B42     		cmp	r3, r1
 1349 0330 2AD0     		beq	.L150
 585:Drivers/STM32F1xx_HAL_Driver/Src/stm32f1xx_hal_dma.c **** 
 1350              		.loc 1 585 0 discriminator 15
 1351 0332 01F56272 		add	r2, r1, #904
 1352 0336 9342     		cmp	r3, r2
 1353 0338 29D0     		beq	.L151
 585:Drivers/STM32F1xx_HAL_Driver/Src/stm32f1xx_hal_dma.c **** 
 1354              		.loc 1 585 0 discriminator 17
 1355 033a 1432     		adds	r2, r2, #20
 1356 033c 9342     		cmp	r3, r2
 1357 033e 28D0     		beq	.L152
 585:Drivers/STM32F1xx_HAL_Driver/Src/stm32f1xx_hal_dma.c **** 
 1358              		.loc 1 585 0 discriminator 19
 1359 0340 1432     		adds	r2, r2, #20
 1360 0342 9342     		cmp	r3, r2
 1361 0344 27D0     		beq	.L153
 585:Drivers/STM32F1xx_HAL_Driver/Src/stm32f1xx_hal_dma.c **** 
 1362              		.loc 1 585 0 discriminator 21
 1363 0346 1432     		adds	r2, r2, #20
 1364 0348 9342     		cmp	r3, r2
 1365 034a 02D0     		beq	.L197
 585:Drivers/STM32F1xx_HAL_Driver/Src/stm32f1xx_hal_dma.c **** 
 1366              		.loc 1 585 0
 1367 034c 4FF40033 		mov	r3, #131072
 1368 0350 03E0     		b	.L93
 1369              	.L197:
 1370 0352 4FF40053 		mov	r3, #8192
 1371 0356 00E0     		b	.L93
 1372              	.L144:
 1373 0358 0223     		movs	r3, #2
 1374              	.L93:
 585:Drivers/STM32F1xx_HAL_Driver/Src/stm32f1xx_hal_dma.c **** 
 1375              		.loc 1 585 0 discriminator 46
 1376 035a 794A     		ldr	r2, .L203+8
 1377 035c 5360     		str	r3, [r2, #4]
 1378              	.L94:
 589:Drivers/STM32F1xx_HAL_Driver/Src/stm32f1xx_hal_dma.c ****   }
 1379              		.loc 1 589 0 is_stmt 1
 1380 035e 0123     		movs	r3, #1
 1381 0360 85F82130 		strb	r3, [r5, #33]
 1382              	.L96:
 598:Drivers/STM32F1xx_HAL_Driver/Src/stm32f1xx_hal_dma.c **** 
 1383              		.loc 1 598 0
 1384 0364 0020     		movs	r0, #0
 1385 0366 85F82000 		strb	r0, [r5, #32]
 600:Drivers/STM32F1xx_HAL_Driver/Src/stm32f1xx_hal_dma.c **** }
 1386              		.loc 1 600 0
 1387 036a 55E6     		b	.L76
 1388              	.L145:
 585:Drivers/STM32F1xx_HAL_Driver/Src/stm32f1xx_hal_dma.c **** 
 1389              		.loc 1 585 0
 1390 036c 2023     		movs	r3, #32
 1391 036e F4E7     		b	.L93
 1392              	.L146:
 1393 0370 4FF40073 		mov	r3, #512
ARM GAS  /tmp/cco4PWEh.s 			page 45


 1394 0374 F1E7     		b	.L93
 1395              	.L147:
 1396 0376 4FF40053 		mov	r3, #8192
 1397 037a EEE7     		b	.L93
 1398              	.L148:
 1399 037c 4FF40033 		mov	r3, #131072
 1400 0380 EBE7     		b	.L93
 1401              	.L149:
 1402 0382 4FF40013 		mov	r3, #2097152
 1403 0386 E8E7     		b	.L93
 1404              	.L150:
 1405 0388 4FF00073 		mov	r3, #33554432
 1406 038c E5E7     		b	.L93
 1407              	.L151:
 1408 038e 0223     		movs	r3, #2
 1409 0390 E3E7     		b	.L93
 1410              	.L152:
 1411 0392 2023     		movs	r3, #32
 1412 0394 E1E7     		b	.L93
 1413              	.L153:
 1414 0396 4FF40073 		mov	r3, #512
 1415 039a DEE7     		b	.L93
 1416              	.L92:
 585:Drivers/STM32F1xx_HAL_Driver/Src/stm32f1xx_hal_dma.c **** 
 1417              		.loc 1 585 0 is_stmt 0 discriminator 2
 1418 039c 674A     		ldr	r2, .L203+4
 1419 039e 9342     		cmp	r3, r2
 1420 03a0 24D0     		beq	.L155
 585:Drivers/STM32F1xx_HAL_Driver/Src/stm32f1xx_hal_dma.c **** 
 1421              		.loc 1 585 0 discriminator 47
 1422 03a2 1432     		adds	r2, r2, #20
 1423 03a4 9342     		cmp	r3, r2
 1424 03a6 25D0     		beq	.L156
 585:Drivers/STM32F1xx_HAL_Driver/Src/stm32f1xx_hal_dma.c **** 
 1425              		.loc 1 585 0 discriminator 49
 1426 03a8 1432     		adds	r2, r2, #20
 1427 03aa 9342     		cmp	r3, r2
 1428 03ac 24D0     		beq	.L157
 585:Drivers/STM32F1xx_HAL_Driver/Src/stm32f1xx_hal_dma.c **** 
 1429              		.loc 1 585 0 discriminator 51
 1430 03ae 1432     		adds	r2, r2, #20
 1431 03b0 9342     		cmp	r3, r2
 1432 03b2 24D0     		beq	.L158
 585:Drivers/STM32F1xx_HAL_Driver/Src/stm32f1xx_hal_dma.c **** 
 1433              		.loc 1 585 0 discriminator 53
 1434 03b4 1432     		adds	r2, r2, #20
 1435 03b6 9342     		cmp	r3, r2
 1436 03b8 24D0     		beq	.L159
 585:Drivers/STM32F1xx_HAL_Driver/Src/stm32f1xx_hal_dma.c **** 
 1437              		.loc 1 585 0 discriminator 55
 1438 03ba 1432     		adds	r2, r2, #20
 1439 03bc 9342     		cmp	r3, r2
 1440 03be 24D0     		beq	.L160
 585:Drivers/STM32F1xx_HAL_Driver/Src/stm32f1xx_hal_dma.c **** 
 1441              		.loc 1 585 0 discriminator 57
 1442 03c0 1432     		adds	r2, r2, #20
 1443 03c2 9342     		cmp	r3, r2
ARM GAS  /tmp/cco4PWEh.s 			page 46


 1444 03c4 24D0     		beq	.L161
 585:Drivers/STM32F1xx_HAL_Driver/Src/stm32f1xx_hal_dma.c **** 
 1445              		.loc 1 585 0 discriminator 59
 1446 03c6 02F56272 		add	r2, r2, #904
 1447 03ca 9342     		cmp	r3, r2
 1448 03cc 23D0     		beq	.L162
 585:Drivers/STM32F1xx_HAL_Driver/Src/stm32f1xx_hal_dma.c **** 
 1449              		.loc 1 585 0 discriminator 61
 1450 03ce 1432     		adds	r2, r2, #20
 1451 03d0 9342     		cmp	r3, r2
 1452 03d2 22D0     		beq	.L163
 585:Drivers/STM32F1xx_HAL_Driver/Src/stm32f1xx_hal_dma.c **** 
 1453              		.loc 1 585 0 discriminator 63
 1454 03d4 1432     		adds	r2, r2, #20
 1455 03d6 9342     		cmp	r3, r2
 1456 03d8 21D0     		beq	.L164
 585:Drivers/STM32F1xx_HAL_Driver/Src/stm32f1xx_hal_dma.c **** 
 1457              		.loc 1 585 0 discriminator 65
 1458 03da 1432     		adds	r2, r2, #20
 1459 03dc 9342     		cmp	r3, r2
 1460 03de 02D0     		beq	.L198
 585:Drivers/STM32F1xx_HAL_Driver/Src/stm32f1xx_hal_dma.c **** 
 1461              		.loc 1 585 0
 1462 03e0 4FF40033 		mov	r3, #131072
 1463 03e4 03E0     		b	.L95
 1464              	.L198:
 1465 03e6 4FF40053 		mov	r3, #8192
 1466 03ea 00E0     		b	.L95
 1467              	.L155:
 1468 03ec 0223     		movs	r3, #2
 1469              	.L95:
 585:Drivers/STM32F1xx_HAL_Driver/Src/stm32f1xx_hal_dma.c **** 
 1470              		.loc 1 585 0 discriminator 90
 1471 03ee 554A     		ldr	r2, .L203+12
 1472 03f0 5360     		str	r3, [r2, #4]
 1473 03f2 B4E7     		b	.L94
 1474              	.L156:
 585:Drivers/STM32F1xx_HAL_Driver/Src/stm32f1xx_hal_dma.c **** 
 1475              		.loc 1 585 0
 1476 03f4 2023     		movs	r3, #32
 1477 03f6 FAE7     		b	.L95
 1478              	.L157:
 1479 03f8 4FF40073 		mov	r3, #512
 1480 03fc F7E7     		b	.L95
 1481              	.L158:
 1482 03fe 4FF40053 		mov	r3, #8192
 1483 0402 F4E7     		b	.L95
 1484              	.L159:
 1485 0404 4FF40033 		mov	r3, #131072
 1486 0408 F1E7     		b	.L95
 1487              	.L160:
 1488 040a 4FF40013 		mov	r3, #2097152
 1489 040e EEE7     		b	.L95
 1490              	.L161:
 1491 0410 4FF00073 		mov	r3, #33554432
 1492 0414 EBE7     		b	.L95
 1493              	.L162:
ARM GAS  /tmp/cco4PWEh.s 			page 47


 1494 0416 0223     		movs	r3, #2
 1495 0418 E9E7     		b	.L95
 1496              	.L163:
 1497 041a 2023     		movs	r3, #32
 1498 041c E7E7     		b	.L95
 1499              	.L164:
 1500 041e 4FF40073 		mov	r3, #512
 1501 0422 E4E7     		b	.L95
 1502              	.L91:
 594:Drivers/STM32F1xx_HAL_Driver/Src/stm32f1xx_hal_dma.c ****   }
 1503              		.loc 1 594 0 is_stmt 1
 1504 0424 4449     		ldr	r1, .L203
 1505 0426 8A42     		cmp	r2, r1
 1506 0428 42D9     		bls	.L97
 594:Drivers/STM32F1xx_HAL_Driver/Src/stm32f1xx_hal_dma.c ****   }
 1507              		.loc 1 594 0 is_stmt 0 discriminator 1
 1508 042a 444A     		ldr	r2, .L203+4
 1509 042c 9342     		cmp	r3, r2
 1510 042e 23D0     		beq	.L166
 594:Drivers/STM32F1xx_HAL_Driver/Src/stm32f1xx_hal_dma.c ****   }
 1511              		.loc 1 594 0 discriminator 3
 1512 0430 1432     		adds	r2, r2, #20
 1513 0432 9342     		cmp	r3, r2
 1514 0434 24D0     		beq	.L167
 594:Drivers/STM32F1xx_HAL_Driver/Src/stm32f1xx_hal_dma.c ****   }
 1515              		.loc 1 594 0 discriminator 5
 1516 0436 1432     		adds	r2, r2, #20
 1517 0438 9342     		cmp	r3, r2
 1518 043a 23D0     		beq	.L168
 594:Drivers/STM32F1xx_HAL_Driver/Src/stm32f1xx_hal_dma.c ****   }
 1519              		.loc 1 594 0 discriminator 7
 1520 043c 1432     		adds	r2, r2, #20
 1521 043e 9342     		cmp	r3, r2
 1522 0440 23D0     		beq	.L169
 594:Drivers/STM32F1xx_HAL_Driver/Src/stm32f1xx_hal_dma.c ****   }
 1523              		.loc 1 594 0 discriminator 9
 1524 0442 1432     		adds	r2, r2, #20
 1525 0444 9342     		cmp	r3, r2
 1526 0446 23D0     		beq	.L170
 594:Drivers/STM32F1xx_HAL_Driver/Src/stm32f1xx_hal_dma.c ****   }
 1527              		.loc 1 594 0 discriminator 11
 1528 0448 1432     		adds	r2, r2, #20
 1529 044a 9342     		cmp	r3, r2
 1530 044c 23D0     		beq	.L171
 594:Drivers/STM32F1xx_HAL_Driver/Src/stm32f1xx_hal_dma.c ****   }
 1531              		.loc 1 594 0 discriminator 13
 1532 044e 8B42     		cmp	r3, r1
 1533 0450 24D0     		beq	.L172
 594:Drivers/STM32F1xx_HAL_Driver/Src/stm32f1xx_hal_dma.c ****   }
 1534              		.loc 1 594 0 discriminator 15
 1535 0452 01F56272 		add	r2, r1, #904
 1536 0456 9342     		cmp	r3, r2
 1537 0458 23D0     		beq	.L173
 594:Drivers/STM32F1xx_HAL_Driver/Src/stm32f1xx_hal_dma.c ****   }
 1538              		.loc 1 594 0 discriminator 17
 1539 045a 1432     		adds	r2, r2, #20
 1540 045c 9342     		cmp	r3, r2
ARM GAS  /tmp/cco4PWEh.s 			page 48


 1541 045e 22D0     		beq	.L174
 594:Drivers/STM32F1xx_HAL_Driver/Src/stm32f1xx_hal_dma.c ****   }
 1542              		.loc 1 594 0 discriminator 19
 1543 0460 1432     		adds	r2, r2, #20
 1544 0462 9342     		cmp	r3, r2
 1545 0464 21D0     		beq	.L175
 594:Drivers/STM32F1xx_HAL_Driver/Src/stm32f1xx_hal_dma.c ****   }
 1546              		.loc 1 594 0 discriminator 21
 1547 0466 1432     		adds	r2, r2, #20
 1548 0468 9342     		cmp	r3, r2
 1549 046a 02D0     		beq	.L199
 594:Drivers/STM32F1xx_HAL_Driver/Src/stm32f1xx_hal_dma.c ****   }
 1550              		.loc 1 594 0
 1551 046c 4FF48023 		mov	r3, #262144
 1552 0470 03E0     		b	.L98
 1553              	.L199:
 1554 0472 4FF48043 		mov	r3, #16384
 1555 0476 00E0     		b	.L98
 1556              	.L166:
 1557 0478 0423     		movs	r3, #4
 1558              	.L98:
 594:Drivers/STM32F1xx_HAL_Driver/Src/stm32f1xx_hal_dma.c ****   }
 1559              		.loc 1 594 0 discriminator 46
 1560 047a 314A     		ldr	r2, .L203+8
 1561 047c 5360     		str	r3, [r2, #4]
 1562 047e 71E7     		b	.L96
 1563              	.L167:
 594:Drivers/STM32F1xx_HAL_Driver/Src/stm32f1xx_hal_dma.c ****   }
 1564              		.loc 1 594 0
 1565 0480 4023     		movs	r3, #64
 1566 0482 FAE7     		b	.L98
 1567              	.L168:
 1568 0484 4FF48063 		mov	r3, #1024
 1569 0488 F7E7     		b	.L98
 1570              	.L169:
 1571 048a 4FF48043 		mov	r3, #16384
 1572 048e F4E7     		b	.L98
 1573              	.L170:
 1574 0490 4FF48023 		mov	r3, #262144
 1575 0494 F1E7     		b	.L98
 1576              	.L171:
 1577 0496 4FF48003 		mov	r3, #4194304
 1578 049a EEE7     		b	.L98
 1579              	.L172:
 1580 049c 4FF08063 		mov	r3, #67108864
 1581 04a0 EBE7     		b	.L98
 1582              	.L173:
 1583 04a2 0423     		movs	r3, #4
 1584 04a4 E9E7     		b	.L98
 1585              	.L174:
 1586 04a6 4023     		movs	r3, #64
 1587 04a8 E7E7     		b	.L98
 1588              	.L175:
 1589 04aa 4FF48063 		mov	r3, #1024
 1590 04ae E4E7     		b	.L98
 1591              	.L97:
 594:Drivers/STM32F1xx_HAL_Driver/Src/stm32f1xx_hal_dma.c ****   }
ARM GAS  /tmp/cco4PWEh.s 			page 49


 1592              		.loc 1 594 0 discriminator 2
 1593 04b0 224A     		ldr	r2, .L203+4
 1594 04b2 9342     		cmp	r3, r2
 1595 04b4 24D0     		beq	.L177
 594:Drivers/STM32F1xx_HAL_Driver/Src/stm32f1xx_hal_dma.c ****   }
 1596              		.loc 1 594 0 discriminator 47
 1597 04b6 1432     		adds	r2, r2, #20
 1598 04b8 9342     		cmp	r3, r2
 1599 04ba 25D0     		beq	.L178
 594:Drivers/STM32F1xx_HAL_Driver/Src/stm32f1xx_hal_dma.c ****   }
 1600              		.loc 1 594 0 discriminator 49
 1601 04bc 1432     		adds	r2, r2, #20
 1602 04be 9342     		cmp	r3, r2
 1603 04c0 24D0     		beq	.L179
 594:Drivers/STM32F1xx_HAL_Driver/Src/stm32f1xx_hal_dma.c ****   }
 1604              		.loc 1 594 0 discriminator 51
 1605 04c2 1432     		adds	r2, r2, #20
 1606 04c4 9342     		cmp	r3, r2
 1607 04c6 24D0     		beq	.L180
 594:Drivers/STM32F1xx_HAL_Driver/Src/stm32f1xx_hal_dma.c ****   }
 1608              		.loc 1 594 0 discriminator 53
 1609 04c8 1432     		adds	r2, r2, #20
 1610 04ca 9342     		cmp	r3, r2
 1611 04cc 24D0     		beq	.L181
 594:Drivers/STM32F1xx_HAL_Driver/Src/stm32f1xx_hal_dma.c ****   }
 1612              		.loc 1 594 0 discriminator 55
 1613 04ce 1432     		adds	r2, r2, #20
 1614 04d0 9342     		cmp	r3, r2
 1615 04d2 24D0     		beq	.L182
 594:Drivers/STM32F1xx_HAL_Driver/Src/stm32f1xx_hal_dma.c ****   }
 1616              		.loc 1 594 0 discriminator 57
 1617 04d4 1432     		adds	r2, r2, #20
 1618 04d6 9342     		cmp	r3, r2
 1619 04d8 24D0     		beq	.L183
 594:Drivers/STM32F1xx_HAL_Driver/Src/stm32f1xx_hal_dma.c ****   }
 1620              		.loc 1 594 0 discriminator 59
 1621 04da 02F56272 		add	r2, r2, #904
 1622 04de 9342     		cmp	r3, r2
 1623 04e0 23D0     		beq	.L184
 594:Drivers/STM32F1xx_HAL_Driver/Src/stm32f1xx_hal_dma.c ****   }
 1624              		.loc 1 594 0 discriminator 61
 1625 04e2 1432     		adds	r2, r2, #20
 1626 04e4 9342     		cmp	r3, r2
 1627 04e6 22D0     		beq	.L185
 594:Drivers/STM32F1xx_HAL_Driver/Src/stm32f1xx_hal_dma.c ****   }
 1628              		.loc 1 594 0 discriminator 63
 1629 04e8 1432     		adds	r2, r2, #20
 1630 04ea 9342     		cmp	r3, r2
 1631 04ec 21D0     		beq	.L186
 594:Drivers/STM32F1xx_HAL_Driver/Src/stm32f1xx_hal_dma.c ****   }
 1632              		.loc 1 594 0 discriminator 65
 1633 04ee 1432     		adds	r2, r2, #20
 1634 04f0 9342     		cmp	r3, r2
 1635 04f2 02D0     		beq	.L200
 594:Drivers/STM32F1xx_HAL_Driver/Src/stm32f1xx_hal_dma.c ****   }
 1636              		.loc 1 594 0
 1637 04f4 4FF48023 		mov	r3, #262144
ARM GAS  /tmp/cco4PWEh.s 			page 50


 1638 04f8 03E0     		b	.L99
 1639              	.L200:
 1640 04fa 4FF48043 		mov	r3, #16384
 1641 04fe 00E0     		b	.L99
 1642              	.L177:
 1643 0500 0423     		movs	r3, #4
 1644              	.L99:
 594:Drivers/STM32F1xx_HAL_Driver/Src/stm32f1xx_hal_dma.c ****   }
 1645              		.loc 1 594 0 discriminator 90
 1646 0502 104A     		ldr	r2, .L203+12
 1647 0504 5360     		str	r3, [r2, #4]
 1648 0506 2DE7     		b	.L96
 1649              	.L178:
 594:Drivers/STM32F1xx_HAL_Driver/Src/stm32f1xx_hal_dma.c ****   }
 1650              		.loc 1 594 0
 1651 0508 4023     		movs	r3, #64
 1652 050a FAE7     		b	.L99
 1653              	.L179:
 1654 050c 4FF48063 		mov	r3, #1024
 1655 0510 F7E7     		b	.L99
 1656              	.L180:
 1657 0512 4FF48043 		mov	r3, #16384
 1658 0516 F4E7     		b	.L99
 1659              	.L181:
 1660 0518 4FF48023 		mov	r3, #262144
 1661 051c F1E7     		b	.L99
 1662              	.L182:
 1663 051e 4FF48003 		mov	r3, #4194304
 1664 0522 EEE7     		b	.L99
 1665              	.L183:
 1666 0524 4FF08063 		mov	r3, #67108864
 1667 0528 EBE7     		b	.L99
 1668              	.L184:
 1669 052a 0423     		movs	r3, #4
 1670 052c E9E7     		b	.L99
 1671              	.L185:
 1672 052e 4023     		movs	r3, #64
 1673 0530 E7E7     		b	.L99
 1674              	.L186:
 1675 0532 4FF48063 		mov	r3, #1024
 1676 0536 E4E7     		b	.L99
 1677              	.L204:
 1678              		.align	2
 1679              	.L203:
 1680 0538 80000240 		.word	1073873024
 1681 053c 08000240 		.word	1073872904
 1682 0540 00040240 		.word	1073873920
 1683 0544 00000240 		.word	1073872896
 1684              		.cfi_endproc
 1685              	.LFE72:
 1687              		.section	.text.HAL_DMA_IRQHandler,"ax",%progbits
 1688              		.align	1
 1689              		.global	HAL_DMA_IRQHandler
 1690              		.syntax unified
 1691              		.thumb
 1692              		.thumb_func
 1693              		.fpu softvfp
ARM GAS  /tmp/cco4PWEh.s 			page 51


 1695              	HAL_DMA_IRQHandler:
 1696              	.LFB73:
 610:Drivers/STM32F1xx_HAL_Driver/Src/stm32f1xx_hal_dma.c ****   uint32_t flag_it = hdma->DmaBaseAddress->ISR;
 1697              		.loc 1 610 0 is_stmt 1
 1698              		.cfi_startproc
 1699              		@ args = 0, pretend = 0, frame = 0
 1700              		@ frame_needed = 0, uses_anonymous_args = 0
 1701              	.LVL61:
 1702 0000 38B5     		push	{r3, r4, r5, lr}
 1703              	.LCFI11:
 1704              		.cfi_def_cfa_offset 16
 1705              		.cfi_offset 3, -16
 1706              		.cfi_offset 4, -12
 1707              		.cfi_offset 5, -8
 1708              		.cfi_offset 14, -4
 611:Drivers/STM32F1xx_HAL_Driver/Src/stm32f1xx_hal_dma.c ****   uint32_t source_it = hdma->Instance->CCR;
 1709              		.loc 1 611 0
 1710 0002 C36B     		ldr	r3, [r0, #60]
 1711 0004 1A68     		ldr	r2, [r3]
 1712              	.LVL62:
 612:Drivers/STM32F1xx_HAL_Driver/Src/stm32f1xx_hal_dma.c ****   
 1713              		.loc 1 612 0
 1714 0006 0468     		ldr	r4, [r0]
 1715 0008 2568     		ldr	r5, [r4]
 1716              	.LVL63:
 615:Drivers/STM32F1xx_HAL_Driver/Src/stm32f1xx_hal_dma.c ****   {
 1717              		.loc 1 615 0
 1718 000a 016C     		ldr	r1, [r0, #64]
 1719 000c 0423     		movs	r3, #4
 1720 000e 8B40     		lsls	r3, r3, r1
 1721 0010 1342     		tst	r3, r2
 1722 0012 00F09B80 		beq	.L206
 615:Drivers/STM32F1xx_HAL_Driver/Src/stm32f1xx_hal_dma.c ****   {
 1723              		.loc 1 615 0 is_stmt 0 discriminator 1
 1724 0016 15F0040F 		tst	r5, #4
 1725 001a 00F09780 		beq	.L206
 618:Drivers/STM32F1xx_HAL_Driver/Src/stm32f1xx_hal_dma.c ****     {
 1726              		.loc 1 618 0 is_stmt 1
 1727 001e 2368     		ldr	r3, [r4]
 1728 0020 13F0200F 		tst	r3, #32
 1729 0024 03D1     		bne	.L207
 621:Drivers/STM32F1xx_HAL_Driver/Src/stm32f1xx_hal_dma.c ****     }
 1730              		.loc 1 621 0
 1731 0026 2368     		ldr	r3, [r4]
 1732 0028 23F00403 		bic	r3, r3, #4
 1733 002c 2360     		str	r3, [r4]
 1734              	.L207:
 624:Drivers/STM32F1xx_HAL_Driver/Src/stm32f1xx_hal_dma.c **** 
 1735              		.loc 1 624 0
 1736 002e 0368     		ldr	r3, [r0]
 1737 0030 AA4A     		ldr	r2, .L268
 1738              	.LVL64:
 1739 0032 9342     		cmp	r3, r2
 1740 0034 46D9     		bls	.L208
 624:Drivers/STM32F1xx_HAL_Driver/Src/stm32f1xx_hal_dma.c **** 
 1741              		.loc 1 624 0 is_stmt 0 discriminator 1
 1742 0036 783A     		subs	r2, r2, #120
ARM GAS  /tmp/cco4PWEh.s 			page 52


 1743 0038 9342     		cmp	r3, r2
 1744 003a 24D0     		beq	.L219
 624:Drivers/STM32F1xx_HAL_Driver/Src/stm32f1xx_hal_dma.c **** 
 1745              		.loc 1 624 0 discriminator 3
 1746 003c 1432     		adds	r2, r2, #20
 1747 003e 9342     		cmp	r3, r2
 1748 0040 28D0     		beq	.L220
 624:Drivers/STM32F1xx_HAL_Driver/Src/stm32f1xx_hal_dma.c **** 
 1749              		.loc 1 624 0 discriminator 5
 1750 0042 1432     		adds	r2, r2, #20
 1751 0044 9342     		cmp	r3, r2
 1752 0046 27D0     		beq	.L221
 624:Drivers/STM32F1xx_HAL_Driver/Src/stm32f1xx_hal_dma.c **** 
 1753              		.loc 1 624 0 discriminator 7
 1754 0048 1432     		adds	r2, r2, #20
 1755 004a 9342     		cmp	r3, r2
 1756 004c 27D0     		beq	.L222
 624:Drivers/STM32F1xx_HAL_Driver/Src/stm32f1xx_hal_dma.c **** 
 1757              		.loc 1 624 0 discriminator 9
 1758 004e 1432     		adds	r2, r2, #20
 1759 0050 9342     		cmp	r3, r2
 1760 0052 27D0     		beq	.L223
 624:Drivers/STM32F1xx_HAL_Driver/Src/stm32f1xx_hal_dma.c **** 
 1761              		.loc 1 624 0 discriminator 11
 1762 0054 1432     		adds	r2, r2, #20
 1763 0056 9342     		cmp	r3, r2
 1764 0058 27D0     		beq	.L224
 624:Drivers/STM32F1xx_HAL_Driver/Src/stm32f1xx_hal_dma.c **** 
 1765              		.loc 1 624 0 discriminator 13
 1766 005a 1432     		adds	r2, r2, #20
 1767 005c 9342     		cmp	r3, r2
 1768 005e 27D0     		beq	.L225
 624:Drivers/STM32F1xx_HAL_Driver/Src/stm32f1xx_hal_dma.c **** 
 1769              		.loc 1 624 0 discriminator 15
 1770 0060 02F56272 		add	r2, r2, #904
 1771 0064 9342     		cmp	r3, r2
 1772 0066 26D0     		beq	.L226
 624:Drivers/STM32F1xx_HAL_Driver/Src/stm32f1xx_hal_dma.c **** 
 1773              		.loc 1 624 0 discriminator 17
 1774 0068 1432     		adds	r2, r2, #20
 1775 006a 9342     		cmp	r3, r2
 1776 006c 25D0     		beq	.L227
 624:Drivers/STM32F1xx_HAL_Driver/Src/stm32f1xx_hal_dma.c **** 
 1777              		.loc 1 624 0 discriminator 19
 1778 006e 1432     		adds	r2, r2, #20
 1779 0070 9342     		cmp	r3, r2
 1780 0072 24D0     		beq	.L228
 624:Drivers/STM32F1xx_HAL_Driver/Src/stm32f1xx_hal_dma.c **** 
 1781              		.loc 1 624 0 discriminator 21
 1782 0074 1432     		adds	r2, r2, #20
 1783 0076 9342     		cmp	r3, r2
 1784 0078 02D0     		beq	.L264
 624:Drivers/STM32F1xx_HAL_Driver/Src/stm32f1xx_hal_dma.c **** 
 1785              		.loc 1 624 0
 1786 007a 4FF48022 		mov	r2, #262144
 1787 007e 03E0     		b	.L209
 1788              	.L264:
ARM GAS  /tmp/cco4PWEh.s 			page 53


 1789 0080 4FF48042 		mov	r2, #16384
 1790 0084 00E0     		b	.L209
 1791              	.L219:
 1792 0086 0422     		movs	r2, #4
 1793              	.L209:
 624:Drivers/STM32F1xx_HAL_Driver/Src/stm32f1xx_hal_dma.c **** 
 1794              		.loc 1 624 0 discriminator 46
 1795 0088 954B     		ldr	r3, .L268+4
 1796 008a 5A60     		str	r2, [r3, #4]
 1797              	.L210:
 629:Drivers/STM32F1xx_HAL_Driver/Src/stm32f1xx_hal_dma.c ****     {
 1798              		.loc 1 629 0 is_stmt 1
 1799 008c C36A     		ldr	r3, [r0, #44]
 1800 008e 03B1     		cbz	r3, .L205
 632:Drivers/STM32F1xx_HAL_Driver/Src/stm32f1xx_hal_dma.c ****     }
 1801              		.loc 1 632 0
 1802 0090 9847     		blx	r3
 1803              	.LVL65:
 1804              	.L205:
 687:Drivers/STM32F1xx_HAL_Driver/Src/stm32f1xx_hal_dma.c **** 
 1805              		.loc 1 687 0
 1806 0092 38BD     		pop	{r3, r4, r5, pc}
 1807              	.LVL66:
 1808              	.L220:
 624:Drivers/STM32F1xx_HAL_Driver/Src/stm32f1xx_hal_dma.c **** 
 1809              		.loc 1 624 0
 1810 0094 4022     		movs	r2, #64
 1811 0096 F7E7     		b	.L209
 1812              	.L221:
 1813 0098 4FF48062 		mov	r2, #1024
 1814 009c F4E7     		b	.L209
 1815              	.L222:
 1816 009e 4FF48042 		mov	r2, #16384
 1817 00a2 F1E7     		b	.L209
 1818              	.L223:
 1819 00a4 4FF48022 		mov	r2, #262144
 1820 00a8 EEE7     		b	.L209
 1821              	.L224:
 1822 00aa 4FF48002 		mov	r2, #4194304
 1823 00ae EBE7     		b	.L209
 1824              	.L225:
 1825 00b0 4FF08062 		mov	r2, #67108864
 1826 00b4 E8E7     		b	.L209
 1827              	.L226:
 1828 00b6 0422     		movs	r2, #4
 1829 00b8 E6E7     		b	.L209
 1830              	.L227:
 1831 00ba 4022     		movs	r2, #64
 1832 00bc E4E7     		b	.L209
 1833              	.L228:
 1834 00be 4FF48062 		mov	r2, #1024
 1835 00c2 E1E7     		b	.L209
 1836              	.L208:
 624:Drivers/STM32F1xx_HAL_Driver/Src/stm32f1xx_hal_dma.c **** 
 1837              		.loc 1 624 0 is_stmt 0 discriminator 2
 1838 00c4 874A     		ldr	r2, .L268+8
 1839 00c6 9342     		cmp	r3, r2
ARM GAS  /tmp/cco4PWEh.s 			page 54


 1840 00c8 24D0     		beq	.L230
 624:Drivers/STM32F1xx_HAL_Driver/Src/stm32f1xx_hal_dma.c **** 
 1841              		.loc 1 624 0 discriminator 47
 1842 00ca 1432     		adds	r2, r2, #20
 1843 00cc 9342     		cmp	r3, r2
 1844 00ce 25D0     		beq	.L231
 624:Drivers/STM32F1xx_HAL_Driver/Src/stm32f1xx_hal_dma.c **** 
 1845              		.loc 1 624 0 discriminator 49
 1846 00d0 1432     		adds	r2, r2, #20
 1847 00d2 9342     		cmp	r3, r2
 1848 00d4 24D0     		beq	.L232
 624:Drivers/STM32F1xx_HAL_Driver/Src/stm32f1xx_hal_dma.c **** 
 1849              		.loc 1 624 0 discriminator 51
 1850 00d6 1432     		adds	r2, r2, #20
 1851 00d8 9342     		cmp	r3, r2
 1852 00da 24D0     		beq	.L233
 624:Drivers/STM32F1xx_HAL_Driver/Src/stm32f1xx_hal_dma.c **** 
 1853              		.loc 1 624 0 discriminator 53
 1854 00dc 1432     		adds	r2, r2, #20
 1855 00de 9342     		cmp	r3, r2
 1856 00e0 24D0     		beq	.L234
 624:Drivers/STM32F1xx_HAL_Driver/Src/stm32f1xx_hal_dma.c **** 
 1857              		.loc 1 624 0 discriminator 55
 1858 00e2 1432     		adds	r2, r2, #20
 1859 00e4 9342     		cmp	r3, r2
 1860 00e6 24D0     		beq	.L235
 624:Drivers/STM32F1xx_HAL_Driver/Src/stm32f1xx_hal_dma.c **** 
 1861              		.loc 1 624 0 discriminator 57
 1862 00e8 1432     		adds	r2, r2, #20
 1863 00ea 9342     		cmp	r3, r2
 1864 00ec 24D0     		beq	.L236
 624:Drivers/STM32F1xx_HAL_Driver/Src/stm32f1xx_hal_dma.c **** 
 1865              		.loc 1 624 0 discriminator 59
 1866 00ee 02F56272 		add	r2, r2, #904
 1867 00f2 9342     		cmp	r3, r2
 1868 00f4 23D0     		beq	.L237
 624:Drivers/STM32F1xx_HAL_Driver/Src/stm32f1xx_hal_dma.c **** 
 1869              		.loc 1 624 0 discriminator 61
 1870 00f6 1432     		adds	r2, r2, #20
 1871 00f8 9342     		cmp	r3, r2
 1872 00fa 22D0     		beq	.L238
 624:Drivers/STM32F1xx_HAL_Driver/Src/stm32f1xx_hal_dma.c **** 
 1873              		.loc 1 624 0 discriminator 63
 1874 00fc 1432     		adds	r2, r2, #20
 1875 00fe 9342     		cmp	r3, r2
 1876 0100 21D0     		beq	.L239
 624:Drivers/STM32F1xx_HAL_Driver/Src/stm32f1xx_hal_dma.c **** 
 1877              		.loc 1 624 0 discriminator 65
 1878 0102 1432     		adds	r2, r2, #20
 1879 0104 9342     		cmp	r3, r2
 1880 0106 02D0     		beq	.L265
 624:Drivers/STM32F1xx_HAL_Driver/Src/stm32f1xx_hal_dma.c **** 
 1881              		.loc 1 624 0
 1882 0108 4FF48022 		mov	r2, #262144
 1883 010c 03E0     		b	.L211
 1884              	.L265:
 1885 010e 4FF48042 		mov	r2, #16384
ARM GAS  /tmp/cco4PWEh.s 			page 55


 1886 0112 00E0     		b	.L211
 1887              	.L230:
 1888 0114 0422     		movs	r2, #4
 1889              	.L211:
 624:Drivers/STM32F1xx_HAL_Driver/Src/stm32f1xx_hal_dma.c **** 
 1890              		.loc 1 624 0 discriminator 90
 1891 0116 744B     		ldr	r3, .L268+12
 1892 0118 5A60     		str	r2, [r3, #4]
 1893 011a B7E7     		b	.L210
 1894              	.L231:
 624:Drivers/STM32F1xx_HAL_Driver/Src/stm32f1xx_hal_dma.c **** 
 1895              		.loc 1 624 0
 1896 011c 4022     		movs	r2, #64
 1897 011e FAE7     		b	.L211
 1898              	.L232:
 1899 0120 4FF48062 		mov	r2, #1024
 1900 0124 F7E7     		b	.L211
 1901              	.L233:
 1902 0126 4FF48042 		mov	r2, #16384
 1903 012a F4E7     		b	.L211
 1904              	.L234:
 1905 012c 4FF48022 		mov	r2, #262144
 1906 0130 F1E7     		b	.L211
 1907              	.L235:
 1908 0132 4FF48002 		mov	r2, #4194304
 1909 0136 EEE7     		b	.L211
 1910              	.L236:
 1911 0138 4FF08062 		mov	r2, #67108864
 1912 013c EBE7     		b	.L211
 1913              	.L237:
 1914 013e 0422     		movs	r2, #4
 1915 0140 E9E7     		b	.L211
 1916              	.L238:
 1917 0142 4022     		movs	r2, #64
 1918 0144 E7E7     		b	.L211
 1919              	.L239:
 1920 0146 4FF48062 		mov	r2, #1024
 1921 014a E4E7     		b	.L211
 1922              	.LVL67:
 1923              	.L206:
 637:Drivers/STM32F1xx_HAL_Driver/Src/stm32f1xx_hal_dma.c ****   {
 1924              		.loc 1 637 0 is_stmt 1
 1925 014c 0223     		movs	r3, #2
 1926 014e 8B40     		lsls	r3, r3, r1
 1927 0150 1342     		tst	r3, r2
 1928 0152 00F0A380 		beq	.L213
 637:Drivers/STM32F1xx_HAL_Driver/Src/stm32f1xx_hal_dma.c ****   {
 1929              		.loc 1 637 0 is_stmt 0 discriminator 1
 1930 0156 15F0020F 		tst	r5, #2
 1931 015a 00F09F80 		beq	.L213
 639:Drivers/STM32F1xx_HAL_Driver/Src/stm32f1xx_hal_dma.c ****     {
 1932              		.loc 1 639 0 is_stmt 1
 1933 015e 2368     		ldr	r3, [r4]
 1934 0160 13F0200F 		tst	r3, #32
 1935 0164 06D1     		bne	.L214
 642:Drivers/STM32F1xx_HAL_Driver/Src/stm32f1xx_hal_dma.c **** 
 1936              		.loc 1 642 0
ARM GAS  /tmp/cco4PWEh.s 			page 56


 1937 0166 2368     		ldr	r3, [r4]
 1938 0168 23F00A03 		bic	r3, r3, #10
 1939 016c 2360     		str	r3, [r4]
 645:Drivers/STM32F1xx_HAL_Driver/Src/stm32f1xx_hal_dma.c ****     }
 1940              		.loc 1 645 0
 1941 016e 0123     		movs	r3, #1
 1942 0170 80F82130 		strb	r3, [r0, #33]
 1943              	.L214:
 648:Drivers/STM32F1xx_HAL_Driver/Src/stm32f1xx_hal_dma.c **** 
 1944              		.loc 1 648 0
 1945 0174 0368     		ldr	r3, [r0]
 1946 0176 594A     		ldr	r2, .L268
 1947              	.LVL68:
 1948 0178 9342     		cmp	r3, r2
 1949 017a 4BD9     		bls	.L215
 648:Drivers/STM32F1xx_HAL_Driver/Src/stm32f1xx_hal_dma.c **** 
 1950              		.loc 1 648 0 is_stmt 0 discriminator 1
 1951 017c 783A     		subs	r2, r2, #120
 1952 017e 9342     		cmp	r3, r2
 1953 0180 24D0     		beq	.L241
 648:Drivers/STM32F1xx_HAL_Driver/Src/stm32f1xx_hal_dma.c **** 
 1954              		.loc 1 648 0 discriminator 3
 1955 0182 1432     		adds	r2, r2, #20
 1956 0184 9342     		cmp	r3, r2
 1957 0186 2DD0     		beq	.L242
 648:Drivers/STM32F1xx_HAL_Driver/Src/stm32f1xx_hal_dma.c **** 
 1958              		.loc 1 648 0 discriminator 5
 1959 0188 1432     		adds	r2, r2, #20
 1960 018a 9342     		cmp	r3, r2
 1961 018c 2CD0     		beq	.L243
 648:Drivers/STM32F1xx_HAL_Driver/Src/stm32f1xx_hal_dma.c **** 
 1962              		.loc 1 648 0 discriminator 7
 1963 018e 1432     		adds	r2, r2, #20
 1964 0190 9342     		cmp	r3, r2
 1965 0192 2CD0     		beq	.L244
 648:Drivers/STM32F1xx_HAL_Driver/Src/stm32f1xx_hal_dma.c **** 
 1966              		.loc 1 648 0 discriminator 9
 1967 0194 1432     		adds	r2, r2, #20
 1968 0196 9342     		cmp	r3, r2
 1969 0198 2CD0     		beq	.L245
 648:Drivers/STM32F1xx_HAL_Driver/Src/stm32f1xx_hal_dma.c **** 
 1970              		.loc 1 648 0 discriminator 11
 1971 019a 1432     		adds	r2, r2, #20
 1972 019c 9342     		cmp	r3, r2
 1973 019e 2CD0     		beq	.L246
 648:Drivers/STM32F1xx_HAL_Driver/Src/stm32f1xx_hal_dma.c **** 
 1974              		.loc 1 648 0 discriminator 13
 1975 01a0 1432     		adds	r2, r2, #20
 1976 01a2 9342     		cmp	r3, r2
 1977 01a4 2CD0     		beq	.L247
 648:Drivers/STM32F1xx_HAL_Driver/Src/stm32f1xx_hal_dma.c **** 
 1978              		.loc 1 648 0 discriminator 15
 1979 01a6 02F56272 		add	r2, r2, #904
 1980 01aa 9342     		cmp	r3, r2
 1981 01ac 2BD0     		beq	.L248
 648:Drivers/STM32F1xx_HAL_Driver/Src/stm32f1xx_hal_dma.c **** 
 1982              		.loc 1 648 0 discriminator 17
ARM GAS  /tmp/cco4PWEh.s 			page 57


 1983 01ae 1432     		adds	r2, r2, #20
 1984 01b0 9342     		cmp	r3, r2
 1985 01b2 2AD0     		beq	.L249
 648:Drivers/STM32F1xx_HAL_Driver/Src/stm32f1xx_hal_dma.c **** 
 1986              		.loc 1 648 0 discriminator 19
 1987 01b4 1432     		adds	r2, r2, #20
 1988 01b6 9342     		cmp	r3, r2
 1989 01b8 29D0     		beq	.L250
 648:Drivers/STM32F1xx_HAL_Driver/Src/stm32f1xx_hal_dma.c **** 
 1990              		.loc 1 648 0 discriminator 21
 1991 01ba 1432     		adds	r2, r2, #20
 1992 01bc 9342     		cmp	r3, r2
 1993 01be 02D0     		beq	.L266
 648:Drivers/STM32F1xx_HAL_Driver/Src/stm32f1xx_hal_dma.c **** 
 1994              		.loc 1 648 0
 1995 01c0 4FF40032 		mov	r2, #131072
 1996 01c4 03E0     		b	.L216
 1997              	.L266:
 1998 01c6 4FF40052 		mov	r2, #8192
 1999 01ca 00E0     		b	.L216
 2000              	.L241:
 2001 01cc 0222     		movs	r2, #2
 2002              	.L216:
 648:Drivers/STM32F1xx_HAL_Driver/Src/stm32f1xx_hal_dma.c **** 
 2003              		.loc 1 648 0 discriminator 46
 2004 01ce 444B     		ldr	r3, .L268+4
 2005 01d0 5A60     		str	r2, [r3, #4]
 2006              	.L217:
 651:Drivers/STM32F1xx_HAL_Driver/Src/stm32f1xx_hal_dma.c **** 
 2007              		.loc 1 651 0 is_stmt 1
 2008 01d2 0023     		movs	r3, #0
 2009 01d4 80F82030 		strb	r3, [r0, #32]
 653:Drivers/STM32F1xx_HAL_Driver/Src/stm32f1xx_hal_dma.c ****     {
 2010              		.loc 1 653 0
 2011 01d8 836A     		ldr	r3, [r0, #40]
 2012 01da 002B     		cmp	r3, #0
 2013 01dc 3FF459AF 		beq	.L205
 656:Drivers/STM32F1xx_HAL_Driver/Src/stm32f1xx_hal_dma.c ****     }
 2014              		.loc 1 656 0
 2015 01e0 9847     		blx	r3
 2016              	.LVL69:
 2017 01e2 56E7     		b	.L205
 2018              	.LVL70:
 2019              	.L242:
 648:Drivers/STM32F1xx_HAL_Driver/Src/stm32f1xx_hal_dma.c **** 
 2020              		.loc 1 648 0
 2021 01e4 2022     		movs	r2, #32
 2022 01e6 F2E7     		b	.L216
 2023              	.L243:
 2024 01e8 4FF40072 		mov	r2, #512
 2025 01ec EFE7     		b	.L216
 2026              	.L244:
 2027 01ee 4FF40052 		mov	r2, #8192
 2028 01f2 ECE7     		b	.L216
 2029              	.L245:
 2030 01f4 4FF40032 		mov	r2, #131072
 2031 01f8 E9E7     		b	.L216
ARM GAS  /tmp/cco4PWEh.s 			page 58


 2032              	.L246:
 2033 01fa 4FF40012 		mov	r2, #2097152
 2034 01fe E6E7     		b	.L216
 2035              	.L247:
 2036 0200 4FF00072 		mov	r2, #33554432
 2037 0204 E3E7     		b	.L216
 2038              	.L248:
 2039 0206 0222     		movs	r2, #2
 2040 0208 E1E7     		b	.L216
 2041              	.L249:
 2042 020a 2022     		movs	r2, #32
 2043 020c DFE7     		b	.L216
 2044              	.L250:
 2045 020e 4FF40072 		mov	r2, #512
 2046 0212 DCE7     		b	.L216
 2047              	.L215:
 648:Drivers/STM32F1xx_HAL_Driver/Src/stm32f1xx_hal_dma.c **** 
 2048              		.loc 1 648 0 is_stmt 0 discriminator 2
 2049 0214 334A     		ldr	r2, .L268+8
 2050 0216 9342     		cmp	r3, r2
 2051 0218 24D0     		beq	.L252
 648:Drivers/STM32F1xx_HAL_Driver/Src/stm32f1xx_hal_dma.c **** 
 2052              		.loc 1 648 0 discriminator 47
 2053 021a 1432     		adds	r2, r2, #20
 2054 021c 9342     		cmp	r3, r2
 2055 021e 25D0     		beq	.L253
 648:Drivers/STM32F1xx_HAL_Driver/Src/stm32f1xx_hal_dma.c **** 
 2056              		.loc 1 648 0 discriminator 49
 2057 0220 1432     		adds	r2, r2, #20
 2058 0222 9342     		cmp	r3, r2
 2059 0224 24D0     		beq	.L254
 648:Drivers/STM32F1xx_HAL_Driver/Src/stm32f1xx_hal_dma.c **** 
 2060              		.loc 1 648 0 discriminator 51
 2061 0226 1432     		adds	r2, r2, #20
 2062 0228 9342     		cmp	r3, r2
 2063 022a 24D0     		beq	.L255
 648:Drivers/STM32F1xx_HAL_Driver/Src/stm32f1xx_hal_dma.c **** 
 2064              		.loc 1 648 0 discriminator 53
 2065 022c 1432     		adds	r2, r2, #20
 2066 022e 9342     		cmp	r3, r2
 2067 0230 24D0     		beq	.L256
 648:Drivers/STM32F1xx_HAL_Driver/Src/stm32f1xx_hal_dma.c **** 
 2068              		.loc 1 648 0 discriminator 55
 2069 0232 1432     		adds	r2, r2, #20
 2070 0234 9342     		cmp	r3, r2
 2071 0236 24D0     		beq	.L257
 648:Drivers/STM32F1xx_HAL_Driver/Src/stm32f1xx_hal_dma.c **** 
 2072              		.loc 1 648 0 discriminator 57
 2073 0238 1432     		adds	r2, r2, #20
 2074 023a 9342     		cmp	r3, r2
 2075 023c 24D0     		beq	.L258
 648:Drivers/STM32F1xx_HAL_Driver/Src/stm32f1xx_hal_dma.c **** 
 2076              		.loc 1 648 0 discriminator 59
 2077 023e 02F56272 		add	r2, r2, #904
 2078 0242 9342     		cmp	r3, r2
 2079 0244 23D0     		beq	.L259
 648:Drivers/STM32F1xx_HAL_Driver/Src/stm32f1xx_hal_dma.c **** 
ARM GAS  /tmp/cco4PWEh.s 			page 59


 2080              		.loc 1 648 0 discriminator 61
 2081 0246 1432     		adds	r2, r2, #20
 2082 0248 9342     		cmp	r3, r2
 2083 024a 22D0     		beq	.L260
 648:Drivers/STM32F1xx_HAL_Driver/Src/stm32f1xx_hal_dma.c **** 
 2084              		.loc 1 648 0 discriminator 63
 2085 024c 1432     		adds	r2, r2, #20
 2086 024e 9342     		cmp	r3, r2
 2087 0250 21D0     		beq	.L261
 648:Drivers/STM32F1xx_HAL_Driver/Src/stm32f1xx_hal_dma.c **** 
 2088              		.loc 1 648 0 discriminator 65
 2089 0252 1432     		adds	r2, r2, #20
 2090 0254 9342     		cmp	r3, r2
 2091 0256 02D0     		beq	.L267
 648:Drivers/STM32F1xx_HAL_Driver/Src/stm32f1xx_hal_dma.c **** 
 2092              		.loc 1 648 0
 2093 0258 4FF40032 		mov	r2, #131072
 2094 025c 03E0     		b	.L218
 2095              	.L267:
 2096 025e 4FF40052 		mov	r2, #8192
 2097 0262 00E0     		b	.L218
 2098              	.L252:
 2099 0264 0222     		movs	r2, #2
 2100              	.L218:
 648:Drivers/STM32F1xx_HAL_Driver/Src/stm32f1xx_hal_dma.c **** 
 2101              		.loc 1 648 0 discriminator 90
 2102 0266 204B     		ldr	r3, .L268+12
 2103 0268 5A60     		str	r2, [r3, #4]
 2104 026a B2E7     		b	.L217
 2105              	.L253:
 648:Drivers/STM32F1xx_HAL_Driver/Src/stm32f1xx_hal_dma.c **** 
 2106              		.loc 1 648 0
 2107 026c 2022     		movs	r2, #32
 2108 026e FAE7     		b	.L218
 2109              	.L254:
 2110 0270 4FF40072 		mov	r2, #512
 2111 0274 F7E7     		b	.L218
 2112              	.L255:
 2113 0276 4FF40052 		mov	r2, #8192
 2114 027a F4E7     		b	.L218
 2115              	.L256:
 2116 027c 4FF40032 		mov	r2, #131072
 2117 0280 F1E7     		b	.L218
 2118              	.L257:
 2119 0282 4FF40012 		mov	r2, #2097152
 2120 0286 EEE7     		b	.L218
 2121              	.L258:
 2122 0288 4FF00072 		mov	r2, #33554432
 2123 028c EBE7     		b	.L218
 2124              	.L259:
 2125 028e 0222     		movs	r2, #2
 2126 0290 E9E7     		b	.L218
 2127              	.L260:
 2128 0292 2022     		movs	r2, #32
 2129 0294 E7E7     		b	.L218
 2130              	.L261:
 2131 0296 4FF40072 		mov	r2, #512
ARM GAS  /tmp/cco4PWEh.s 			page 60


 2132 029a E4E7     		b	.L218
 2133              	.LVL71:
 2134              	.L213:
 661:Drivers/STM32F1xx_HAL_Driver/Src/stm32f1xx_hal_dma.c ****   {
 2135              		.loc 1 661 0 is_stmt 1
 2136 029c 0823     		movs	r3, #8
 2137 029e 03FA01F1 		lsl	r1, r3, r1
 2138 02a2 1142     		tst	r1, r2
 2139 02a4 3FF4F5AE 		beq	.L205
 661:Drivers/STM32F1xx_HAL_Driver/Src/stm32f1xx_hal_dma.c ****   {
 2140              		.loc 1 661 0 is_stmt 0 discriminator 1
 2141 02a8 15F0080F 		tst	r5, #8
 2142 02ac 3FF4F1AE 		beq	.L205
 666:Drivers/STM32F1xx_HAL_Driver/Src/stm32f1xx_hal_dma.c **** 
 2143              		.loc 1 666 0 is_stmt 1
 2144 02b0 2368     		ldr	r3, [r4]
 2145 02b2 23F00E03 		bic	r3, r3, #14
 2146 02b6 2360     		str	r3, [r4]
 669:Drivers/STM32F1xx_HAL_Driver/Src/stm32f1xx_hal_dma.c **** 
 2147              		.loc 1 669 0
 2148 02b8 026C     		ldr	r2, [r0, #64]
 2149              	.LVL72:
 2150 02ba C16B     		ldr	r1, [r0, #60]
 2151 02bc 0123     		movs	r3, #1
 2152 02be 03FA02F2 		lsl	r2, r3, r2
 2153 02c2 4A60     		str	r2, [r1, #4]
 672:Drivers/STM32F1xx_HAL_Driver/Src/stm32f1xx_hal_dma.c **** 
 2154              		.loc 1 672 0
 2155 02c4 8363     		str	r3, [r0, #56]
 675:Drivers/STM32F1xx_HAL_Driver/Src/stm32f1xx_hal_dma.c **** 
 2156              		.loc 1 675 0
 2157 02c6 80F82130 		strb	r3, [r0, #33]
 678:Drivers/STM32F1xx_HAL_Driver/Src/stm32f1xx_hal_dma.c **** 
 2158              		.loc 1 678 0
 2159 02ca 0023     		movs	r3, #0
 2160 02cc 80F82030 		strb	r3, [r0, #32]
 680:Drivers/STM32F1xx_HAL_Driver/Src/stm32f1xx_hal_dma.c ****     {
 2161              		.loc 1 680 0
 2162 02d0 036B     		ldr	r3, [r0, #48]
 2163 02d2 002B     		cmp	r3, #0
 2164 02d4 3FF4DDAE 		beq	.L205
 683:Drivers/STM32F1xx_HAL_Driver/Src/stm32f1xx_hal_dma.c ****     }
 2165              		.loc 1 683 0
 2166 02d8 9847     		blx	r3
 2167              	.LVL73:
 686:Drivers/STM32F1xx_HAL_Driver/Src/stm32f1xx_hal_dma.c **** }
 2168              		.loc 1 686 0
 2169 02da DAE6     		b	.L205
 2170              	.L269:
 2171              		.align	2
 2172              	.L268:
 2173 02dc 80000240 		.word	1073873024
 2174 02e0 00040240 		.word	1073873920
 2175 02e4 08000240 		.word	1073872904
 2176 02e8 00000240 		.word	1073872896
 2177              		.cfi_endproc
 2178              	.LFE73:
ARM GAS  /tmp/cco4PWEh.s 			page 61


 2180              		.section	.text.HAL_DMA_RegisterCallback,"ax",%progbits
 2181              		.align	1
 2182              		.global	HAL_DMA_RegisterCallback
 2183              		.syntax unified
 2184              		.thumb
 2185              		.thumb_func
 2186              		.fpu softvfp
 2188              	HAL_DMA_RegisterCallback:
 2189              	.LFB74:
 700:Drivers/STM32F1xx_HAL_Driver/Src/stm32f1xx_hal_dma.c ****   HAL_StatusTypeDef status = HAL_OK;
 2190              		.loc 1 700 0
 2191              		.cfi_startproc
 2192              		@ args = 0, pretend = 0, frame = 0
 2193              		@ frame_needed = 0, uses_anonymous_args = 0
 2194              		@ link register save eliminated.
 2195              	.LVL74:
 2196 0000 0346     		mov	r3, r0
 2197              	.LVL75:
 704:Drivers/STM32F1xx_HAL_Driver/Src/stm32f1xx_hal_dma.c ****   
 2198              		.loc 1 704 0
 2199 0002 90F82000 		ldrb	r0, [r0, #32]	@ zero_extendqisi2
 2200              	.LVL76:
 2201 0006 0128     		cmp	r0, #1
 2202 0008 1FD0     		beq	.L278
 704:Drivers/STM32F1xx_HAL_Driver/Src/stm32f1xx_hal_dma.c ****   
 2203              		.loc 1 704 0 is_stmt 0 discriminator 2
 2204 000a 0120     		movs	r0, #1
 2205 000c 83F82000 		strb	r0, [r3, #32]
 706:Drivers/STM32F1xx_HAL_Driver/Src/stm32f1xx_hal_dma.c ****   {
 2206              		.loc 1 706 0 is_stmt 1 discriminator 2
 2207 0010 93F82100 		ldrb	r0, [r3, #33]	@ zero_extendqisi2
 2208 0014 0128     		cmp	r0, #1
 2209 0016 04D0     		beq	.L281
 733:Drivers/STM32F1xx_HAL_Driver/Src/stm32f1xx_hal_dma.c ****   } 
 2210              		.loc 1 733 0
 2211 0018 0120     		movs	r0, #1
 2212              	.L272:
 2213              	.LVL77:
 737:Drivers/STM32F1xx_HAL_Driver/Src/stm32f1xx_hal_dma.c ****   
 2214              		.loc 1 737 0
 2215 001a 0022     		movs	r2, #0
 2216              	.LVL78:
 2217 001c 83F82020 		strb	r2, [r3, #32]
 739:Drivers/STM32F1xx_HAL_Driver/Src/stm32f1xx_hal_dma.c **** }
 2218              		.loc 1 739 0
 2219 0020 7047     		bx	lr
 2220              	.LVL79:
 2221              	.L281:
 708:Drivers/STM32F1xx_HAL_Driver/Src/stm32f1xx_hal_dma.c ****     {
 2222              		.loc 1 708 0
 2223 0022 0329     		cmp	r1, #3
 2224 0024 0FD8     		bhi	.L280
 2225 0026 DFE801F0 		tbb	[pc, r1]
 2226              	.L274:
 2227 002a 02       		.byte	(.L273-.L274)/2
 2228 002b 05       		.byte	(.L275-.L274)/2
 2229 002c 08       		.byte	(.L276-.L274)/2
ARM GAS  /tmp/cco4PWEh.s 			page 62


 2230 002d 0B       		.byte	(.L277-.L274)/2
 2231              		.p2align 1
 2232              	.L273:
 711:Drivers/STM32F1xx_HAL_Driver/Src/stm32f1xx_hal_dma.c ****       break;
 2233              		.loc 1 711 0
 2234 002e 9A62     		str	r2, [r3, #40]
 701:Drivers/STM32F1xx_HAL_Driver/Src/stm32f1xx_hal_dma.c ****   
 2235              		.loc 1 701 0
 2236 0030 0020     		movs	r0, #0
 712:Drivers/STM32F1xx_HAL_Driver/Src/stm32f1xx_hal_dma.c ****       
 2237              		.loc 1 712 0
 2238 0032 F2E7     		b	.L272
 2239              	.L275:
 715:Drivers/STM32F1xx_HAL_Driver/Src/stm32f1xx_hal_dma.c ****       break;         
 2240              		.loc 1 715 0
 2241 0034 DA62     		str	r2, [r3, #44]
 701:Drivers/STM32F1xx_HAL_Driver/Src/stm32f1xx_hal_dma.c ****   
 2242              		.loc 1 701 0
 2243 0036 0020     		movs	r0, #0
 716:Drivers/STM32F1xx_HAL_Driver/Src/stm32f1xx_hal_dma.c **** 
 2244              		.loc 1 716 0
 2245 0038 EFE7     		b	.L272
 2246              	.L276:
 719:Drivers/STM32F1xx_HAL_Driver/Src/stm32f1xx_hal_dma.c ****       break;         
 2247              		.loc 1 719 0
 2248 003a 1A63     		str	r2, [r3, #48]
 701:Drivers/STM32F1xx_HAL_Driver/Src/stm32f1xx_hal_dma.c ****   
 2249              		.loc 1 701 0
 2250 003c 0020     		movs	r0, #0
 720:Drivers/STM32F1xx_HAL_Driver/Src/stm32f1xx_hal_dma.c ****       
 2251              		.loc 1 720 0
 2252 003e ECE7     		b	.L272
 2253              	.L277:
 723:Drivers/STM32F1xx_HAL_Driver/Src/stm32f1xx_hal_dma.c ****       break; 
 2254              		.loc 1 723 0
 2255 0040 5A63     		str	r2, [r3, #52]
 701:Drivers/STM32F1xx_HAL_Driver/Src/stm32f1xx_hal_dma.c ****   
 2256              		.loc 1 701 0
 2257 0042 0020     		movs	r0, #0
 724:Drivers/STM32F1xx_HAL_Driver/Src/stm32f1xx_hal_dma.c ****       
 2258              		.loc 1 724 0
 2259 0044 E9E7     		b	.L272
 2260              	.L280:
 727:Drivers/STM32F1xx_HAL_Driver/Src/stm32f1xx_hal_dma.c ****       break;                                                            
 2261              		.loc 1 727 0
 2262 0046 0120     		movs	r0, #1
 2263 0048 E7E7     		b	.L272
 2264              	.L278:
 704:Drivers/STM32F1xx_HAL_Driver/Src/stm32f1xx_hal_dma.c ****   
 2265              		.loc 1 704 0
 2266 004a 0220     		movs	r0, #2
 740:Drivers/STM32F1xx_HAL_Driver/Src/stm32f1xx_hal_dma.c **** 
 2267              		.loc 1 740 0
 2268 004c 7047     		bx	lr
 2269              		.cfi_endproc
 2270              	.LFE74:
 2272              		.section	.text.HAL_DMA_UnRegisterCallback,"ax",%progbits
ARM GAS  /tmp/cco4PWEh.s 			page 63


 2273              		.align	1
 2274              		.global	HAL_DMA_UnRegisterCallback
 2275              		.syntax unified
 2276              		.thumb
 2277              		.thumb_func
 2278              		.fpu softvfp
 2280              	HAL_DMA_UnRegisterCallback:
 2281              	.LFB75:
 751:Drivers/STM32F1xx_HAL_Driver/Src/stm32f1xx_hal_dma.c ****   HAL_StatusTypeDef status = HAL_OK;
 2282              		.loc 1 751 0
 2283              		.cfi_startproc
 2284              		@ args = 0, pretend = 0, frame = 0
 2285              		@ frame_needed = 0, uses_anonymous_args = 0
 2286              		@ link register save eliminated.
 2287              	.LVL80:
 2288 0000 0346     		mov	r3, r0
 2289              	.LVL81:
 755:Drivers/STM32F1xx_HAL_Driver/Src/stm32f1xx_hal_dma.c ****   
 2290              		.loc 1 755 0
 2291 0002 90F82020 		ldrb	r2, [r0, #32]	@ zero_extendqisi2
 2292 0006 012A     		cmp	r2, #1
 2293 0008 26D0     		beq	.L291
 755:Drivers/STM32F1xx_HAL_Driver/Src/stm32f1xx_hal_dma.c ****   
 2294              		.loc 1 755 0 is_stmt 0 discriminator 2
 2295 000a 0122     		movs	r2, #1
 2296 000c 80F82020 		strb	r2, [r0, #32]
 757:Drivers/STM32F1xx_HAL_Driver/Src/stm32f1xx_hal_dma.c ****   {
 2297              		.loc 1 757 0 is_stmt 1 discriminator 2
 2298 0010 90F82120 		ldrb	r2, [r0, #33]	@ zero_extendqisi2
 2299 0014 012A     		cmp	r2, #1
 2300 0016 04D0     		beq	.L294
 791:Drivers/STM32F1xx_HAL_Driver/Src/stm32f1xx_hal_dma.c ****   } 
 2301              		.loc 1 791 0
 2302 0018 0120     		movs	r0, #1
 2303              	.LVL82:
 2304              	.L284:
 795:Drivers/STM32F1xx_HAL_Driver/Src/stm32f1xx_hal_dma.c ****   
 2305              		.loc 1 795 0
 2306 001a 0022     		movs	r2, #0
 2307 001c 83F82020 		strb	r2, [r3, #32]
 797:Drivers/STM32F1xx_HAL_Driver/Src/stm32f1xx_hal_dma.c **** }
 2308              		.loc 1 797 0
 2309 0020 7047     		bx	lr
 2310              	.LVL83:
 2311              	.L294:
 759:Drivers/STM32F1xx_HAL_Driver/Src/stm32f1xx_hal_dma.c ****     {
 2312              		.loc 1 759 0
 2313 0022 0429     		cmp	r1, #4
 2314 0024 16D8     		bhi	.L293
 2315 0026 DFE801F0 		tbb	[pc, r1]
 2316              	.L286:
 2317 002a 03       		.byte	(.L285-.L286)/2
 2318 002b 06       		.byte	(.L287-.L286)/2
 2319 002c 09       		.byte	(.L288-.L286)/2
 2320 002d 0C       		.byte	(.L289-.L286)/2
 2321 002e 0F       		.byte	(.L290-.L286)/2
 2322 002f 00       		.p2align 1
ARM GAS  /tmp/cco4PWEh.s 			page 64


 2323              	.L285:
 762:Drivers/STM32F1xx_HAL_Driver/Src/stm32f1xx_hal_dma.c ****       break;
 2324              		.loc 1 762 0
 2325 0030 0020     		movs	r0, #0
 2326              	.LVL84:
 2327 0032 9862     		str	r0, [r3, #40]
 763:Drivers/STM32F1xx_HAL_Driver/Src/stm32f1xx_hal_dma.c **** 
 2328              		.loc 1 763 0
 2329 0034 F1E7     		b	.L284
 2330              	.LVL85:
 2331              	.L287:
 766:Drivers/STM32F1xx_HAL_Driver/Src/stm32f1xx_hal_dma.c ****       break;         
 2332              		.loc 1 766 0
 2333 0036 0020     		movs	r0, #0
 2334              	.LVL86:
 2335 0038 D862     		str	r0, [r3, #44]
 767:Drivers/STM32F1xx_HAL_Driver/Src/stm32f1xx_hal_dma.c **** 
 2336              		.loc 1 767 0
 2337 003a EEE7     		b	.L284
 2338              	.LVL87:
 2339              	.L288:
 770:Drivers/STM32F1xx_HAL_Driver/Src/stm32f1xx_hal_dma.c ****       break;         
 2340              		.loc 1 770 0
 2341 003c 0020     		movs	r0, #0
 2342              	.LVL88:
 2343 003e 1863     		str	r0, [r3, #48]
 771:Drivers/STM32F1xx_HAL_Driver/Src/stm32f1xx_hal_dma.c **** 
 2344              		.loc 1 771 0
 2345 0040 EBE7     		b	.L284
 2346              	.LVL89:
 2347              	.L289:
 774:Drivers/STM32F1xx_HAL_Driver/Src/stm32f1xx_hal_dma.c ****       break; 
 2348              		.loc 1 774 0
 2349 0042 0020     		movs	r0, #0
 2350              	.LVL90:
 2351 0044 5863     		str	r0, [r3, #52]
 775:Drivers/STM32F1xx_HAL_Driver/Src/stm32f1xx_hal_dma.c **** 
 2352              		.loc 1 775 0
 2353 0046 E8E7     		b	.L284
 2354              	.LVL91:
 2355              	.L290:
 778:Drivers/STM32F1xx_HAL_Driver/Src/stm32f1xx_hal_dma.c ****       hdma->XferHalfCpltCallback = NULL;
 2356              		.loc 1 778 0
 2357 0048 0020     		movs	r0, #0
 2358              	.LVL92:
 2359 004a 9862     		str	r0, [r3, #40]
 779:Drivers/STM32F1xx_HAL_Driver/Src/stm32f1xx_hal_dma.c ****       hdma->XferErrorCallback = NULL;
 2360              		.loc 1 779 0
 2361 004c D862     		str	r0, [r3, #44]
 780:Drivers/STM32F1xx_HAL_Driver/Src/stm32f1xx_hal_dma.c ****       hdma->XferAbortCallback = NULL;
 2362              		.loc 1 780 0
 2363 004e 1863     		str	r0, [r3, #48]
 781:Drivers/STM32F1xx_HAL_Driver/Src/stm32f1xx_hal_dma.c ****       break; 
 2364              		.loc 1 781 0
 2365 0050 5863     		str	r0, [r3, #52]
 782:Drivers/STM32F1xx_HAL_Driver/Src/stm32f1xx_hal_dma.c **** 
 2366              		.loc 1 782 0
ARM GAS  /tmp/cco4PWEh.s 			page 65


 2367 0052 E2E7     		b	.L284
 2368              	.LVL93:
 2369              	.L293:
 785:Drivers/STM32F1xx_HAL_Driver/Src/stm32f1xx_hal_dma.c ****       break;
 2370              		.loc 1 785 0
 2371 0054 0120     		movs	r0, #1
 2372              	.LVL94:
 2373 0056 E0E7     		b	.L284
 2374              	.LVL95:
 2375              	.L291:
 755:Drivers/STM32F1xx_HAL_Driver/Src/stm32f1xx_hal_dma.c ****   
 2376              		.loc 1 755 0
 2377 0058 0220     		movs	r0, #2
 2378              	.LVL96:
 798:Drivers/STM32F1xx_HAL_Driver/Src/stm32f1xx_hal_dma.c ****   
 2379              		.loc 1 798 0
 2380 005a 7047     		bx	lr
 2381              		.cfi_endproc
 2382              	.LFE75:
 2384              		.section	.text.HAL_DMA_GetState,"ax",%progbits
 2385              		.align	1
 2386              		.global	HAL_DMA_GetState
 2387              		.syntax unified
 2388              		.thumb
 2389              		.thumb_func
 2390              		.fpu softvfp
 2392              	HAL_DMA_GetState:
 2393              	.LFB76:
 827:Drivers/STM32F1xx_HAL_Driver/Src/stm32f1xx_hal_dma.c ****   /* Return DMA handle state */
 2394              		.loc 1 827 0
 2395              		.cfi_startproc
 2396              		@ args = 0, pretend = 0, frame = 0
 2397              		@ frame_needed = 0, uses_anonymous_args = 0
 2398              		@ link register save eliminated.
 2399              	.LVL97:
 830:Drivers/STM32F1xx_HAL_Driver/Src/stm32f1xx_hal_dma.c **** 
 2400              		.loc 1 830 0
 2401 0000 90F82100 		ldrb	r0, [r0, #33]	@ zero_extendqisi2
 2402              	.LVL98:
 2403 0004 7047     		bx	lr
 2404              		.cfi_endproc
 2405              	.LFE76:
 2407              		.section	.text.HAL_DMA_GetError,"ax",%progbits
 2408              		.align	1
 2409              		.global	HAL_DMA_GetError
 2410              		.syntax unified
 2411              		.thumb
 2412              		.thumb_func
 2413              		.fpu softvfp
 2415              	HAL_DMA_GetError:
 2416              	.LFB77:
 839:Drivers/STM32F1xx_HAL_Driver/Src/stm32f1xx_hal_dma.c ****   return hdma->ErrorCode;
 2417              		.loc 1 839 0
 2418              		.cfi_startproc
 2419              		@ args = 0, pretend = 0, frame = 0
 2420              		@ frame_needed = 0, uses_anonymous_args = 0
 2421              		@ link register save eliminated.
ARM GAS  /tmp/cco4PWEh.s 			page 66


 2422              	.LVL99:
 840:Drivers/STM32F1xx_HAL_Driver/Src/stm32f1xx_hal_dma.c **** }
 2423              		.loc 1 840 0
 2424 0000 806B     		ldr	r0, [r0, #56]
 2425              	.LVL100:
 841:Drivers/STM32F1xx_HAL_Driver/Src/stm32f1xx_hal_dma.c **** 
 2426              		.loc 1 841 0
 2427 0002 7047     		bx	lr
 2428              		.cfi_endproc
 2429              	.LFE77:
 2431              		.text
 2432              	.Letext0:
 2433              		.file 2 "/usr/arm-none-eabi/include/machine/_default_types.h"
 2434              		.file 3 "/usr/arm-none-eabi/include/sys/_stdint.h"
 2435              		.file 4 "Drivers/CMSIS/Include/core_cm3.h"
 2436              		.file 5 "Drivers/CMSIS/Device/ST/STM32F1xx/Include/system_stm32f1xx.h"
 2437              		.file 6 "Drivers/CMSIS/Device/ST/STM32F1xx/Include/stm32f103xe.h"
 2438              		.file 7 "/usr/arm-none-eabi/include/sys/lock.h"
 2439              		.file 8 "/usr/arm-none-eabi/include/sys/_types.h"
 2440              		.file 9 "/usr/lib/gcc/arm-none-eabi/7.3.1/include/stddef.h"
 2441              		.file 10 "/usr/arm-none-eabi/include/sys/reent.h"
 2442              		.file 11 "Drivers/CMSIS/Device/ST/STM32F1xx/Include/stm32f1xx.h"
 2443              		.file 12 "Drivers/STM32F1xx_HAL_Driver/Inc/stm32f1xx_hal_def.h"
 2444              		.file 13 "Drivers/STM32F1xx_HAL_Driver/Inc/stm32f1xx_hal_dma.h"
 2445              		.file 14 "Drivers/STM32F1xx_HAL_Driver/Inc/stm32f1xx_hal.h"
ARM GAS  /tmp/cco4PWEh.s 			page 67

